   1              	 .syntax unified
   2              	 .cpu cortex-m4
   3              	 .eabi_attribute 27,3
   4              	 .fpu fpv4-sp-d16
   5              	 .eabi_attribute 20,1
   6              	 .eabi_attribute 21,1
   7              	 .eabi_attribute 23,3
   8              	 .eabi_attribute 24,1
   9              	 .eabi_attribute 25,1
  10              	 .eabi_attribute 26,1
  11              	 .eabi_attribute 30,6
  12              	 .eabi_attribute 34,1
  13              	 .eabi_attribute 18,4
  14              	 .thumb
  15              	 .file "main.c"
  16              	 .text
  17              	.Ltext0:
  18              	 .cfi_sections .debug_frame
  19              	 .section .text.XMC_GPIO_SetOutputHigh,"ax",%progbits
  20              	 .align 2
  21              	 .thumb
  22              	 .thumb_func
  24              	XMC_GPIO_SetOutputHigh:
  25              	.LFB175:
  26              	 .file 1 "C:/Workspaces/BachelorThesis/imu_test/Libraries/XMCLib/inc/xmc_gpio.h"
   1:C:/Workspaces/BachelorThesis/imu_test/Libraries/XMCLib/inc\xmc_gpio.h **** /**
   2:C:/Workspaces/BachelorThesis/imu_test/Libraries/XMCLib/inc\xmc_gpio.h ****  * @file xmc_gpio.h
   3:C:/Workspaces/BachelorThesis/imu_test/Libraries/XMCLib/inc\xmc_gpio.h ****  * @date 2015-06-20
   4:C:/Workspaces/BachelorThesis/imu_test/Libraries/XMCLib/inc\xmc_gpio.h ****  *
   5:C:/Workspaces/BachelorThesis/imu_test/Libraries/XMCLib/inc\xmc_gpio.h ****  * @cond
   6:C:/Workspaces/BachelorThesis/imu_test/Libraries/XMCLib/inc\xmc_gpio.h ****  *****************************************************************************
   7:C:/Workspaces/BachelorThesis/imu_test/Libraries/XMCLib/inc\xmc_gpio.h ****  * XMClib v2.2.0 - XMC Peripheral Driver Library
   8:C:/Workspaces/BachelorThesis/imu_test/Libraries/XMCLib/inc\xmc_gpio.h ****  *
   9:C:/Workspaces/BachelorThesis/imu_test/Libraries/XMCLib/inc\xmc_gpio.h ****  * Copyright (c) 2015-2020, Infineon Technologies AG
  10:C:/Workspaces/BachelorThesis/imu_test/Libraries/XMCLib/inc\xmc_gpio.h ****  * All rights reserved.
  11:C:/Workspaces/BachelorThesis/imu_test/Libraries/XMCLib/inc\xmc_gpio.h ****  *
  12:C:/Workspaces/BachelorThesis/imu_test/Libraries/XMCLib/inc\xmc_gpio.h ****  * Boost Software License - Version 1.0 - August 17th, 2003
  13:C:/Workspaces/BachelorThesis/imu_test/Libraries/XMCLib/inc\xmc_gpio.h ****  *
  14:C:/Workspaces/BachelorThesis/imu_test/Libraries/XMCLib/inc\xmc_gpio.h ****  * Permission is hereby granted, free of charge, to any person or organization
  15:C:/Workspaces/BachelorThesis/imu_test/Libraries/XMCLib/inc\xmc_gpio.h ****  * obtaining a copy of the software and accompanying documentation covered by
  16:C:/Workspaces/BachelorThesis/imu_test/Libraries/XMCLib/inc\xmc_gpio.h ****  * this license (the "Software") to use, reproduce, display, distribute,
  17:C:/Workspaces/BachelorThesis/imu_test/Libraries/XMCLib/inc\xmc_gpio.h ****  * execute, and transmit the Software, and to prepare derivative works of the
  18:C:/Workspaces/BachelorThesis/imu_test/Libraries/XMCLib/inc\xmc_gpio.h ****  * Software, and to permit third-parties to whom the Software is furnished to
  19:C:/Workspaces/BachelorThesis/imu_test/Libraries/XMCLib/inc\xmc_gpio.h ****  * do so, all subject to the following:
  20:C:/Workspaces/BachelorThesis/imu_test/Libraries/XMCLib/inc\xmc_gpio.h ****  *
  21:C:/Workspaces/BachelorThesis/imu_test/Libraries/XMCLib/inc\xmc_gpio.h ****  * The copyright notices in the Software and this entire statement, including
  22:C:/Workspaces/BachelorThesis/imu_test/Libraries/XMCLib/inc\xmc_gpio.h ****  * the above license grant, this restriction and the following disclaimer,
  23:C:/Workspaces/BachelorThesis/imu_test/Libraries/XMCLib/inc\xmc_gpio.h ****  * must be included in all copies of the Software, in whole or in part, and
  24:C:/Workspaces/BachelorThesis/imu_test/Libraries/XMCLib/inc\xmc_gpio.h ****  * all derivative works of the Software, unless such copies or derivative
  25:C:/Workspaces/BachelorThesis/imu_test/Libraries/XMCLib/inc\xmc_gpio.h ****  * works are solely in the form of machine-executable object code generated by
  26:C:/Workspaces/BachelorThesis/imu_test/Libraries/XMCLib/inc\xmc_gpio.h ****  * a source language processor.
  27:C:/Workspaces/BachelorThesis/imu_test/Libraries/XMCLib/inc\xmc_gpio.h ****  *
  28:C:/Workspaces/BachelorThesis/imu_test/Libraries/XMCLib/inc\xmc_gpio.h ****  * THE SOFTWARE IS PROVIDED "AS IS", WITHOUT WARRANTY OF ANY KIND, EXPRESS OR
  29:C:/Workspaces/BachelorThesis/imu_test/Libraries/XMCLib/inc\xmc_gpio.h ****  * IMPLIED, INCLUDING BUT NOT LIMITED TO THE WARRANTIES OF MERCHANTABILITY,
  30:C:/Workspaces/BachelorThesis/imu_test/Libraries/XMCLib/inc\xmc_gpio.h ****  * FITNESS FOR A PARTICULAR PURPOSE, TITLE AND NON-INFRINGEMENT. IN NO EVENT
  31:C:/Workspaces/BachelorThesis/imu_test/Libraries/XMCLib/inc\xmc_gpio.h ****  * SHALL THE COPYRIGHT HOLDERS OR ANYONE DISTRIBUTING THE SOFTWARE BE LIABLE
  32:C:/Workspaces/BachelorThesis/imu_test/Libraries/XMCLib/inc\xmc_gpio.h ****  * FOR ANY DAMAGES OR OTHER LIABILITY, WHETHER IN CONTRACT, TORT OR OTHERWISE,
  33:C:/Workspaces/BachelorThesis/imu_test/Libraries/XMCLib/inc\xmc_gpio.h ****  * ARISING FROM, OUT OF OR IN CONNECTION WITH THE SOFTWARE OR THE USE OR OTHER
  34:C:/Workspaces/BachelorThesis/imu_test/Libraries/XMCLib/inc\xmc_gpio.h ****  * DEALINGS IN THE SOFTWARE.
  35:C:/Workspaces/BachelorThesis/imu_test/Libraries/XMCLib/inc\xmc_gpio.h ****  *
  36:C:/Workspaces/BachelorThesis/imu_test/Libraries/XMCLib/inc\xmc_gpio.h ****  * To improve the quality of the software, users are encouraged to share
  37:C:/Workspaces/BachelorThesis/imu_test/Libraries/XMCLib/inc\xmc_gpio.h ****  * modifications, enhancements or bug fixes with Infineon Technologies AG
  38:C:/Workspaces/BachelorThesis/imu_test/Libraries/XMCLib/inc\xmc_gpio.h ****  * at XMCSupport@infineon.com.
  39:C:/Workspaces/BachelorThesis/imu_test/Libraries/XMCLib/inc\xmc_gpio.h ****  *****************************************************************************
  40:C:/Workspaces/BachelorThesis/imu_test/Libraries/XMCLib/inc\xmc_gpio.h ****  *
  41:C:/Workspaces/BachelorThesis/imu_test/Libraries/XMCLib/inc\xmc_gpio.h ****  * Change History
  42:C:/Workspaces/BachelorThesis/imu_test/Libraries/XMCLib/inc\xmc_gpio.h ****  * --------------
  43:C:/Workspaces/BachelorThesis/imu_test/Libraries/XMCLib/inc\xmc_gpio.h ****  *
  44:C:/Workspaces/BachelorThesis/imu_test/Libraries/XMCLib/inc\xmc_gpio.h ****  * 2015-02-20:
  45:C:/Workspaces/BachelorThesis/imu_test/Libraries/XMCLib/inc\xmc_gpio.h ****  *     - Initial draft<br>
  46:C:/Workspaces/BachelorThesis/imu_test/Libraries/XMCLib/inc\xmc_gpio.h ****  *     - Documentation improved <br>
  47:C:/Workspaces/BachelorThesis/imu_test/Libraries/XMCLib/inc\xmc_gpio.h ****  *
  48:C:/Workspaces/BachelorThesis/imu_test/Libraries/XMCLib/inc\xmc_gpio.h ****  * 2015-06-20:
  49:C:/Workspaces/BachelorThesis/imu_test/Libraries/XMCLib/inc\xmc_gpio.h ****  *     - Removed version macros and declaration of GetDriverVersion API
  50:C:/Workspaces/BachelorThesis/imu_test/Libraries/XMCLib/inc\xmc_gpio.h ****  *
  51:C:/Workspaces/BachelorThesis/imu_test/Libraries/XMCLib/inc\xmc_gpio.h ****  * @endcond
  52:C:/Workspaces/BachelorThesis/imu_test/Libraries/XMCLib/inc\xmc_gpio.h ****  *
  53:C:/Workspaces/BachelorThesis/imu_test/Libraries/XMCLib/inc\xmc_gpio.h ****  */
  54:C:/Workspaces/BachelorThesis/imu_test/Libraries/XMCLib/inc\xmc_gpio.h **** 
  55:C:/Workspaces/BachelorThesis/imu_test/Libraries/XMCLib/inc\xmc_gpio.h **** #ifndef XMC_GPIO_H
  56:C:/Workspaces/BachelorThesis/imu_test/Libraries/XMCLib/inc\xmc_gpio.h **** #define XMC_GPIO_H
  57:C:/Workspaces/BachelorThesis/imu_test/Libraries/XMCLib/inc\xmc_gpio.h **** 
  58:C:/Workspaces/BachelorThesis/imu_test/Libraries/XMCLib/inc\xmc_gpio.h **** /**************************************************************************************************
  59:C:/Workspaces/BachelorThesis/imu_test/Libraries/XMCLib/inc\xmc_gpio.h ****  * HEADER FILES
  60:C:/Workspaces/BachelorThesis/imu_test/Libraries/XMCLib/inc\xmc_gpio.h ****  **************************************************************************************************
  61:C:/Workspaces/BachelorThesis/imu_test/Libraries/XMCLib/inc\xmc_gpio.h **** 
  62:C:/Workspaces/BachelorThesis/imu_test/Libraries/XMCLib/inc\xmc_gpio.h **** #include "xmc_common.h"
  63:C:/Workspaces/BachelorThesis/imu_test/Libraries/XMCLib/inc\xmc_gpio.h **** 
  64:C:/Workspaces/BachelorThesis/imu_test/Libraries/XMCLib/inc\xmc_gpio.h **** /**
  65:C:/Workspaces/BachelorThesis/imu_test/Libraries/XMCLib/inc\xmc_gpio.h ****  * @addtogroup XMClib XMC Peripheral Library
  66:C:/Workspaces/BachelorThesis/imu_test/Libraries/XMCLib/inc\xmc_gpio.h ****  * @{
  67:C:/Workspaces/BachelorThesis/imu_test/Libraries/XMCLib/inc\xmc_gpio.h ****  */
  68:C:/Workspaces/BachelorThesis/imu_test/Libraries/XMCLib/inc\xmc_gpio.h **** 
  69:C:/Workspaces/BachelorThesis/imu_test/Libraries/XMCLib/inc\xmc_gpio.h **** /**
  70:C:/Workspaces/BachelorThesis/imu_test/Libraries/XMCLib/inc\xmc_gpio.h ****  * @addtogroup GPIO
  71:C:/Workspaces/BachelorThesis/imu_test/Libraries/XMCLib/inc\xmc_gpio.h ****  * @brief General Purpose Input Output (GPIO) driver for the XMC microcontroller family.
  72:C:/Workspaces/BachelorThesis/imu_test/Libraries/XMCLib/inc\xmc_gpio.h ****  *
  73:C:/Workspaces/BachelorThesis/imu_test/Libraries/XMCLib/inc\xmc_gpio.h ****  * GPIO driver provide a generic and very flexible software interface for all standard digital I/O 
  74:C:/Workspaces/BachelorThesis/imu_test/Libraries/XMCLib/inc\xmc_gpio.h ****  * Each port slice has individual interfaces for the operation as General Purpose I/O and it furthe
  75:C:/Workspaces/BachelorThesis/imu_test/Libraries/XMCLib/inc\xmc_gpio.h ****  * connectivity to the on-chip periphery and the control for the pad characteristics.
  76:C:/Workspaces/BachelorThesis/imu_test/Libraries/XMCLib/inc\xmc_gpio.h ****  *
  77:C:/Workspaces/BachelorThesis/imu_test/Libraries/XMCLib/inc\xmc_gpio.h ****  * The driver is divided into Input and Output mode.
  78:C:/Workspaces/BachelorThesis/imu_test/Libraries/XMCLib/inc\xmc_gpio.h ****  *
  79:C:/Workspaces/BachelorThesis/imu_test/Libraries/XMCLib/inc\xmc_gpio.h ****  * Input mode features:
  80:C:/Workspaces/BachelorThesis/imu_test/Libraries/XMCLib/inc\xmc_gpio.h ****  * -# Configuration structure XMC_GPIO_CONFIG_t and initialization function XMC_GPIO_Init()
  81:C:/Workspaces/BachelorThesis/imu_test/Libraries/XMCLib/inc\xmc_gpio.h ****  * -# Allows the selection of weak pull-up or pull-down device. Configuration structure XMC_GPIO_MO
  82:C:/Workspaces/BachelorThesis/imu_test/Libraries/XMCLib/inc\xmc_gpio.h ****  * \if XMC1
  83:C:/Workspaces/BachelorThesis/imu_test/Libraries/XMCLib/inc\xmc_gpio.h ****  * -# Allows the selection of input hysteresis. XMC_GPIO_SetInputHysteresis()
  84:C:/Workspaces/BachelorThesis/imu_test/Libraries/XMCLib/inc\xmc_gpio.h ****  * \endif
  85:C:/Workspaces/BachelorThesis/imu_test/Libraries/XMCLib/inc\xmc_gpio.h ****  *
  86:C:/Workspaces/BachelorThesis/imu_test/Libraries/XMCLib/inc\xmc_gpio.h ****  *
  87:C:/Workspaces/BachelorThesis/imu_test/Libraries/XMCLib/inc\xmc_gpio.h ****  * Output mode features:
  88:C:/Workspaces/BachelorThesis/imu_test/Libraries/XMCLib/inc\xmc_gpio.h ****  * -# Allows the selection of push pull/open drain and Alternate output. Configuration structure XM
  89:C:/Workspaces/BachelorThesis/imu_test/Libraries/XMCLib/inc\xmc_gpio.h ****  * \if XMC4
  90:C:/Workspaces/BachelorThesis/imu_test/Libraries/XMCLib/inc\xmc_gpio.h ****  * -# Allows the selection of pad driver strength. Configuration structure XMC_GPIO_OUTPUT_STRENGTH
  91:C:/Workspaces/BachelorThesis/imu_test/Libraries/XMCLib/inc\xmc_gpio.h ****  * \endif
  92:C:/Workspaces/BachelorThesis/imu_test/Libraries/XMCLib/inc\xmc_gpio.h ****  *
  93:C:/Workspaces/BachelorThesis/imu_test/Libraries/XMCLib/inc\xmc_gpio.h ****  * -# Allows the selection of initial output level. Configuration structure XMC_GPIO_OUTPUT_LEVEL_t
  94:C:/Workspaces/BachelorThesis/imu_test/Libraries/XMCLib/inc\xmc_gpio.h ****  *
  95:C:/Workspaces/BachelorThesis/imu_test/Libraries/XMCLib/inc\xmc_gpio.h ****  *@{
  96:C:/Workspaces/BachelorThesis/imu_test/Libraries/XMCLib/inc\xmc_gpio.h ****  */
  97:C:/Workspaces/BachelorThesis/imu_test/Libraries/XMCLib/inc\xmc_gpio.h **** 
  98:C:/Workspaces/BachelorThesis/imu_test/Libraries/XMCLib/inc\xmc_gpio.h **** /**************************************************************************************************
  99:C:/Workspaces/BachelorThesis/imu_test/Libraries/XMCLib/inc\xmc_gpio.h ****  * MACROS
 100:C:/Workspaces/BachelorThesis/imu_test/Libraries/XMCLib/inc\xmc_gpio.h ****  **************************************************************************************************
 101:C:/Workspaces/BachelorThesis/imu_test/Libraries/XMCLib/inc\xmc_gpio.h **** 
 102:C:/Workspaces/BachelorThesis/imu_test/Libraries/XMCLib/inc\xmc_gpio.h **** #define PORT_IOCR_PC_Pos PORT0_IOCR0_PC0_Pos
 103:C:/Workspaces/BachelorThesis/imu_test/Libraries/XMCLib/inc\xmc_gpio.h **** #define PORT_IOCR_PC_Msk PORT0_IOCR0_PC0_Msk
 104:C:/Workspaces/BachelorThesis/imu_test/Libraries/XMCLib/inc\xmc_gpio.h **** 
 105:C:/Workspaces/BachelorThesis/imu_test/Libraries/XMCLib/inc\xmc_gpio.h **** #define PORT_IOCR_PC_Size 				(8U)
 106:C:/Workspaces/BachelorThesis/imu_test/Libraries/XMCLib/inc\xmc_gpio.h **** 
 107:C:/Workspaces/BachelorThesis/imu_test/Libraries/XMCLib/inc\xmc_gpio.h **** 
 108:C:/Workspaces/BachelorThesis/imu_test/Libraries/XMCLib/inc\xmc_gpio.h **** #define XMC_GPIO_CHECK_OUTPUT_LEVEL(level) ((level == XMC_GPIO_OUTPUT_LEVEL_LOW) || \
 109:C:/Workspaces/BachelorThesis/imu_test/Libraries/XMCLib/inc\xmc_gpio.h ****                                             (level == XMC_GPIO_OUTPUT_LEVEL_HIGH))
 110:C:/Workspaces/BachelorThesis/imu_test/Libraries/XMCLib/inc\xmc_gpio.h **** 
 111:C:/Workspaces/BachelorThesis/imu_test/Libraries/XMCLib/inc\xmc_gpio.h **** #define XMC_GPIO_CHECK_HWCTRL(hwctrl) ((hwctrl == XMC_GPIO_HWCTRL_DISABLED) || \
 112:C:/Workspaces/BachelorThesis/imu_test/Libraries/XMCLib/inc\xmc_gpio.h ****                                        (hwctrl == XMC_GPIO_HWCTRL_PERIPHERAL1) || \
 113:C:/Workspaces/BachelorThesis/imu_test/Libraries/XMCLib/inc\xmc_gpio.h ****                                        (hwctrl == XMC_GPIO_HWCTRL_PERIPHERAL2))
 114:C:/Workspaces/BachelorThesis/imu_test/Libraries/XMCLib/inc\xmc_gpio.h **** 
 115:C:/Workspaces/BachelorThesis/imu_test/Libraries/XMCLib/inc\xmc_gpio.h **** /**************************************************************************************************
 116:C:/Workspaces/BachelorThesis/imu_test/Libraries/XMCLib/inc\xmc_gpio.h ****  * ENUMS
 117:C:/Workspaces/BachelorThesis/imu_test/Libraries/XMCLib/inc\xmc_gpio.h ****  **************************************************************************************************
 118:C:/Workspaces/BachelorThesis/imu_test/Libraries/XMCLib/inc\xmc_gpio.h **** 
 119:C:/Workspaces/BachelorThesis/imu_test/Libraries/XMCLib/inc\xmc_gpio.h **** 
 120:C:/Workspaces/BachelorThesis/imu_test/Libraries/XMCLib/inc\xmc_gpio.h **** /**
 121:C:/Workspaces/BachelorThesis/imu_test/Libraries/XMCLib/inc\xmc_gpio.h ****  * Defines output level of a pin. Use type \a XMC_GPIO_OUTPUT_LEVEL_t for this enum.
 122:C:/Workspaces/BachelorThesis/imu_test/Libraries/XMCLib/inc\xmc_gpio.h ****  */
 123:C:/Workspaces/BachelorThesis/imu_test/Libraries/XMCLib/inc\xmc_gpio.h **** typedef enum XMC_GPIO_OUTPUT_LEVEL
 124:C:/Workspaces/BachelorThesis/imu_test/Libraries/XMCLib/inc\xmc_gpio.h **** {
 125:C:/Workspaces/BachelorThesis/imu_test/Libraries/XMCLib/inc\xmc_gpio.h ****   XMC_GPIO_OUTPUT_LEVEL_LOW  = 0x10000U, /**<  Reset bit */
 126:C:/Workspaces/BachelorThesis/imu_test/Libraries/XMCLib/inc\xmc_gpio.h ****   XMC_GPIO_OUTPUT_LEVEL_HIGH = 0x1U, 	/**< Set bit  */
 127:C:/Workspaces/BachelorThesis/imu_test/Libraries/XMCLib/inc\xmc_gpio.h **** } XMC_GPIO_OUTPUT_LEVEL_t;
 128:C:/Workspaces/BachelorThesis/imu_test/Libraries/XMCLib/inc\xmc_gpio.h **** 
 129:C:/Workspaces/BachelorThesis/imu_test/Libraries/XMCLib/inc\xmc_gpio.h **** /**
 130:C:/Workspaces/BachelorThesis/imu_test/Libraries/XMCLib/inc\xmc_gpio.h ****  * Defines direct hardware control characteristics of the pin . Use type \a XMC_GPIO_HWCTRL_t for t
 131:C:/Workspaces/BachelorThesis/imu_test/Libraries/XMCLib/inc\xmc_gpio.h ****  */
 132:C:/Workspaces/BachelorThesis/imu_test/Libraries/XMCLib/inc\xmc_gpio.h **** typedef enum XMC_GPIO_HWCTRL
 133:C:/Workspaces/BachelorThesis/imu_test/Libraries/XMCLib/inc\xmc_gpio.h **** {
 134:C:/Workspaces/BachelorThesis/imu_test/Libraries/XMCLib/inc\xmc_gpio.h ****   XMC_GPIO_HWCTRL_DISABLED     = 0x0U, /**<  Software control only */
 135:C:/Workspaces/BachelorThesis/imu_test/Libraries/XMCLib/inc\xmc_gpio.h ****   XMC_GPIO_HWCTRL_PERIPHERAL1  = 0x1U, /**<  HWI0/HWO0 control path can override the software confi
 136:C:/Workspaces/BachelorThesis/imu_test/Libraries/XMCLib/inc\xmc_gpio.h ****   XMC_GPIO_HWCTRL_PERIPHERAL2  = 0x2U  /**<  HWI1/HWO1 control path can override the software confi
 137:C:/Workspaces/BachelorThesis/imu_test/Libraries/XMCLib/inc\xmc_gpio.h **** } XMC_GPIO_HWCTRL_t;
 138:C:/Workspaces/BachelorThesis/imu_test/Libraries/XMCLib/inc\xmc_gpio.h **** 
 139:C:/Workspaces/BachelorThesis/imu_test/Libraries/XMCLib/inc\xmc_gpio.h **** /**************************************************************************************************
 140:C:/Workspaces/BachelorThesis/imu_test/Libraries/XMCLib/inc\xmc_gpio.h ****  * DEVICE FAMILY EXTENSIONS
 141:C:/Workspaces/BachelorThesis/imu_test/Libraries/XMCLib/inc\xmc_gpio.h ****  **************************************************************************************************
 142:C:/Workspaces/BachelorThesis/imu_test/Libraries/XMCLib/inc\xmc_gpio.h **** 
 143:C:/Workspaces/BachelorThesis/imu_test/Libraries/XMCLib/inc\xmc_gpio.h **** #if UC_FAMILY == XMC1
 144:C:/Workspaces/BachelorThesis/imu_test/Libraries/XMCLib/inc\xmc_gpio.h **** #include "xmc1_gpio.h"
 145:C:/Workspaces/BachelorThesis/imu_test/Libraries/XMCLib/inc\xmc_gpio.h **** #elif UC_FAMILY == XMC4
 146:C:/Workspaces/BachelorThesis/imu_test/Libraries/XMCLib/inc\xmc_gpio.h **** #include "xmc4_gpio.h"
 147:C:/Workspaces/BachelorThesis/imu_test/Libraries/XMCLib/inc\xmc_gpio.h **** #else
 148:C:/Workspaces/BachelorThesis/imu_test/Libraries/XMCLib/inc\xmc_gpio.h **** #error "xmc_gpio.h: family device not supported"
 149:C:/Workspaces/BachelorThesis/imu_test/Libraries/XMCLib/inc\xmc_gpio.h **** #endif
 150:C:/Workspaces/BachelorThesis/imu_test/Libraries/XMCLib/inc\xmc_gpio.h **** 
 151:C:/Workspaces/BachelorThesis/imu_test/Libraries/XMCLib/inc\xmc_gpio.h **** /**************************************************************************************************
 152:C:/Workspaces/BachelorThesis/imu_test/Libraries/XMCLib/inc\xmc_gpio.h ****  * API PROTOTYPES
 153:C:/Workspaces/BachelorThesis/imu_test/Libraries/XMCLib/inc\xmc_gpio.h ****  **************************************************************************************************
 154:C:/Workspaces/BachelorThesis/imu_test/Libraries/XMCLib/inc\xmc_gpio.h **** 
 155:C:/Workspaces/BachelorThesis/imu_test/Libraries/XMCLib/inc\xmc_gpio.h **** #ifdef __cplusplus
 156:C:/Workspaces/BachelorThesis/imu_test/Libraries/XMCLib/inc\xmc_gpio.h **** extern "C" {
 157:C:/Workspaces/BachelorThesis/imu_test/Libraries/XMCLib/inc\xmc_gpio.h **** #endif
 158:C:/Workspaces/BachelorThesis/imu_test/Libraries/XMCLib/inc\xmc_gpio.h **** 
 159:C:/Workspaces/BachelorThesis/imu_test/Libraries/XMCLib/inc\xmc_gpio.h **** 
 160:C:/Workspaces/BachelorThesis/imu_test/Libraries/XMCLib/inc\xmc_gpio.h **** /**
 161:C:/Workspaces/BachelorThesis/imu_test/Libraries/XMCLib/inc\xmc_gpio.h ****  * @param  port	  Constant pointer pointing to GPIO port, to access port registers like Pn_OUT,Pn_O
 162:C:/Workspaces/BachelorThesis/imu_test/Libraries/XMCLib/inc\xmc_gpio.h ****  * @param  pin	  Port pin number.
 163:C:/Workspaces/BachelorThesis/imu_test/Libraries/XMCLib/inc\xmc_gpio.h ****  * @param  config GPIO configuration data structure. Refer data structure @ref XMC_GPIO_CONFIG_t fo
 164:C:/Workspaces/BachelorThesis/imu_test/Libraries/XMCLib/inc\xmc_gpio.h ****  *
 165:C:/Workspaces/BachelorThesis/imu_test/Libraries/XMCLib/inc\xmc_gpio.h ****  * @return None
 166:C:/Workspaces/BachelorThesis/imu_test/Libraries/XMCLib/inc\xmc_gpio.h ****  *
 167:C:/Workspaces/BachelorThesis/imu_test/Libraries/XMCLib/inc\xmc_gpio.h ****  * \par<b>Description:</b><br>
 168:C:/Workspaces/BachelorThesis/imu_test/Libraries/XMCLib/inc\xmc_gpio.h ****  * \if XMC1
 169:C:/Workspaces/BachelorThesis/imu_test/Libraries/XMCLib/inc\xmc_gpio.h ****  * Initializes input / output mode settings like, pull up / pull down devices,hysteresis, push pull
 170:C:/Workspaces/BachelorThesis/imu_test/Libraries/XMCLib/inc\xmc_gpio.h ****  * Also configures alternate function outputs and clears hardware port control for a selected \a po
 171:C:/Workspaces/BachelorThesis/imu_test/Libraries/XMCLib/inc\xmc_gpio.h ****  * \a config provides selected I/O settings. It configures hardware registers Pn_IOCR,Pn_OUT, Pn_OM
 172:C:/Workspaces/BachelorThesis/imu_test/Libraries/XMCLib/inc\xmc_gpio.h ****  * \endif
 173:C:/Workspaces/BachelorThesis/imu_test/Libraries/XMCLib/inc\xmc_gpio.h ****  * \if XMC4
 174:C:/Workspaces/BachelorThesis/imu_test/Libraries/XMCLib/inc\xmc_gpio.h ****  * Initializes input / output mode settings like, pull up / pull down devices,push pull /open drain
 175:C:/Workspaces/BachelorThesis/imu_test/Libraries/XMCLib/inc\xmc_gpio.h ****  * Also configures alternate function outputs and clears hardware port control for selected \a port
 176:C:/Workspaces/BachelorThesis/imu_test/Libraries/XMCLib/inc\xmc_gpio.h ****  * It configures hardware registers Pn_IOCR,Pn_OUT,Pn_OMR,Pn_PDISC and Pn_PDR.\n
 177:C:/Workspaces/BachelorThesis/imu_test/Libraries/XMCLib/inc\xmc_gpio.h ****  * \endif
 178:C:/Workspaces/BachelorThesis/imu_test/Libraries/XMCLib/inc\xmc_gpio.h ****  *
 179:C:/Workspaces/BachelorThesis/imu_test/Libraries/XMCLib/inc\xmc_gpio.h ****  * \par<b>Related APIs:</b><BR>
 180:C:/Workspaces/BachelorThesis/imu_test/Libraries/XMCLib/inc\xmc_gpio.h ****  *  None
 181:C:/Workspaces/BachelorThesis/imu_test/Libraries/XMCLib/inc\xmc_gpio.h ****  *
 182:C:/Workspaces/BachelorThesis/imu_test/Libraries/XMCLib/inc\xmc_gpio.h ****  * \par<b>Note:</b><br>
 183:C:/Workspaces/BachelorThesis/imu_test/Libraries/XMCLib/inc\xmc_gpio.h ****  * This API is called in definition of DAVE_init by code generation and therefore should not be exp
 184:C:/Workspaces/BachelorThesis/imu_test/Libraries/XMCLib/inc\xmc_gpio.h ****  * for the normal operation. Use other APIs only after DAVE_init is called successfully (returns DA
 185:C:/Workspaces/BachelorThesis/imu_test/Libraries/XMCLib/inc\xmc_gpio.h ****  *
 186:C:/Workspaces/BachelorThesis/imu_test/Libraries/XMCLib/inc\xmc_gpio.h ****  *
 187:C:/Workspaces/BachelorThesis/imu_test/Libraries/XMCLib/inc\xmc_gpio.h ****  */
 188:C:/Workspaces/BachelorThesis/imu_test/Libraries/XMCLib/inc\xmc_gpio.h **** 
 189:C:/Workspaces/BachelorThesis/imu_test/Libraries/XMCLib/inc\xmc_gpio.h **** 
 190:C:/Workspaces/BachelorThesis/imu_test/Libraries/XMCLib/inc\xmc_gpio.h **** void XMC_GPIO_Init(XMC_GPIO_PORT_t *const port, const uint8_t pin, const XMC_GPIO_CONFIG_t *const c
 191:C:/Workspaces/BachelorThesis/imu_test/Libraries/XMCLib/inc\xmc_gpio.h **** 
 192:C:/Workspaces/BachelorThesis/imu_test/Libraries/XMCLib/inc\xmc_gpio.h **** /**
 193:C:/Workspaces/BachelorThesis/imu_test/Libraries/XMCLib/inc\xmc_gpio.h ****  *
 194:C:/Workspaces/BachelorThesis/imu_test/Libraries/XMCLib/inc\xmc_gpio.h ****  * @param  port	Constant pointer pointing to GPIO port, to access hardware register Pn_IOCR.
 195:C:/Workspaces/BachelorThesis/imu_test/Libraries/XMCLib/inc\xmc_gpio.h ****  * @param  pin	Port pin number.
 196:C:/Workspaces/BachelorThesis/imu_test/Libraries/XMCLib/inc\xmc_gpio.h ****  * @param  mode input / output functionality selection. Refer @ref XMC_GPIO_MODE_t for valid values
 197:C:/Workspaces/BachelorThesis/imu_test/Libraries/XMCLib/inc\xmc_gpio.h ****  *
 198:C:/Workspaces/BachelorThesis/imu_test/Libraries/XMCLib/inc\xmc_gpio.h ****  * @return None
 199:C:/Workspaces/BachelorThesis/imu_test/Libraries/XMCLib/inc\xmc_gpio.h ****  *
 200:C:/Workspaces/BachelorThesis/imu_test/Libraries/XMCLib/inc\xmc_gpio.h ****  * \par<b>Description:</b><br>
 201:C:/Workspaces/BachelorThesis/imu_test/Libraries/XMCLib/inc\xmc_gpio.h ****  * Sets digital input and output driver functionality and characteristics of a GPIO port pin. It co
 202:C:/Workspaces/BachelorThesis/imu_test/Libraries/XMCLib/inc\xmc_gpio.h ****  * registers Pn_IOCR. \a mode is initially configured during initialization in XMC_GPIO_Init(). Cal
 203:C:/Workspaces/BachelorThesis/imu_test/Libraries/XMCLib/inc\xmc_gpio.h ****  * the port direction functionality as needed later in the program.
 204:C:/Workspaces/BachelorThesis/imu_test/Libraries/XMCLib/inc\xmc_gpio.h ****  *
 205:C:/Workspaces/BachelorThesis/imu_test/Libraries/XMCLib/inc\xmc_gpio.h ****  * \par<b>Related APIs:</b><BR>
 206:C:/Workspaces/BachelorThesis/imu_test/Libraries/XMCLib/inc\xmc_gpio.h ****  *  None
 207:C:/Workspaces/BachelorThesis/imu_test/Libraries/XMCLib/inc\xmc_gpio.h ****  *
 208:C:/Workspaces/BachelorThesis/imu_test/Libraries/XMCLib/inc\xmc_gpio.h ****  */
 209:C:/Workspaces/BachelorThesis/imu_test/Libraries/XMCLib/inc\xmc_gpio.h **** 
 210:C:/Workspaces/BachelorThesis/imu_test/Libraries/XMCLib/inc\xmc_gpio.h **** void XMC_GPIO_SetMode(XMC_GPIO_PORT_t *const port, const uint8_t pin, const XMC_GPIO_MODE_t mode);
 211:C:/Workspaces/BachelorThesis/imu_test/Libraries/XMCLib/inc\xmc_gpio.h **** 
 212:C:/Workspaces/BachelorThesis/imu_test/Libraries/XMCLib/inc\xmc_gpio.h **** 
 213:C:/Workspaces/BachelorThesis/imu_test/Libraries/XMCLib/inc\xmc_gpio.h **** /**
 214:C:/Workspaces/BachelorThesis/imu_test/Libraries/XMCLib/inc\xmc_gpio.h ****  *
 215:C:/Workspaces/BachelorThesis/imu_test/Libraries/XMCLib/inc\xmc_gpio.h ****  * @param  port	 Constant pointer pointing to GPIO port, to access hardware register Pn_OMR.
 216:C:/Workspaces/BachelorThesis/imu_test/Libraries/XMCLib/inc\xmc_gpio.h ****  * @param  pin	 Port pin number.
 217:C:/Workspaces/BachelorThesis/imu_test/Libraries/XMCLib/inc\xmc_gpio.h ****  * @param  level output level selection. Refer @ref XMC_GPIO_OUTPUT_LEVEL_t for valid values.
 218:C:/Workspaces/BachelorThesis/imu_test/Libraries/XMCLib/inc\xmc_gpio.h ****  *
 219:C:/Workspaces/BachelorThesis/imu_test/Libraries/XMCLib/inc\xmc_gpio.h ****  * @return None
 220:C:/Workspaces/BachelorThesis/imu_test/Libraries/XMCLib/inc\xmc_gpio.h ****  *
 221:C:/Workspaces/BachelorThesis/imu_test/Libraries/XMCLib/inc\xmc_gpio.h ****  * \par<b>Description:</b><br>
 222:C:/Workspaces/BachelorThesis/imu_test/Libraries/XMCLib/inc\xmc_gpio.h ****  * Set port pin output level to high or low.It configures hardware registers Pn_OMR.\a level is ini
 223:C:/Workspaces/BachelorThesis/imu_test/Libraries/XMCLib/inc\xmc_gpio.h ****  * configured during initialization in XMC_GPIO_Init(). Call this API to alter output level as need
 224:C:/Workspaces/BachelorThesis/imu_test/Libraries/XMCLib/inc\xmc_gpio.h ****  *
 225:C:/Workspaces/BachelorThesis/imu_test/Libraries/XMCLib/inc\xmc_gpio.h ****  * \par<b>Related APIs:</b><BR>
 226:C:/Workspaces/BachelorThesis/imu_test/Libraries/XMCLib/inc\xmc_gpio.h ****  *  XMC_GPIO_SetOutputHigh(), XMC_GPIO_SetOutputLow().
 227:C:/Workspaces/BachelorThesis/imu_test/Libraries/XMCLib/inc\xmc_gpio.h ****  *
 228:C:/Workspaces/BachelorThesis/imu_test/Libraries/XMCLib/inc\xmc_gpio.h ****  * \par<b>Note:</b><br>
 229:C:/Workspaces/BachelorThesis/imu_test/Libraries/XMCLib/inc\xmc_gpio.h ****  * Prior to this api, user has to configure port pin to output mode using XMC_GPIO_SetMode().
 230:C:/Workspaces/BachelorThesis/imu_test/Libraries/XMCLib/inc\xmc_gpio.h ****  *
 231:C:/Workspaces/BachelorThesis/imu_test/Libraries/XMCLib/inc\xmc_gpio.h ****  */
 232:C:/Workspaces/BachelorThesis/imu_test/Libraries/XMCLib/inc\xmc_gpio.h **** 
 233:C:/Workspaces/BachelorThesis/imu_test/Libraries/XMCLib/inc\xmc_gpio.h **** 
 234:C:/Workspaces/BachelorThesis/imu_test/Libraries/XMCLib/inc\xmc_gpio.h **** __STATIC_INLINE void XMC_GPIO_SetOutputLevel(XMC_GPIO_PORT_t *const port, const uint8_t pin, const 
 235:C:/Workspaces/BachelorThesis/imu_test/Libraries/XMCLib/inc\xmc_gpio.h **** {
 236:C:/Workspaces/BachelorThesis/imu_test/Libraries/XMCLib/inc\xmc_gpio.h ****   XMC_ASSERT("XMC_GPIO_SetOutputLevel: Invalid port", XMC_GPIO_CHECK_OUTPUT_PORT(port));
 237:C:/Workspaces/BachelorThesis/imu_test/Libraries/XMCLib/inc\xmc_gpio.h ****   XMC_ASSERT("XMC_GPIO_SetOutputLevel: Invalid output level", XMC_GPIO_CHECK_OUTPUT_LEVEL(level));
 238:C:/Workspaces/BachelorThesis/imu_test/Libraries/XMCLib/inc\xmc_gpio.h **** 
 239:C:/Workspaces/BachelorThesis/imu_test/Libraries/XMCLib/inc\xmc_gpio.h ****   port->OMR = (uint32_t)level << pin;
 240:C:/Workspaces/BachelorThesis/imu_test/Libraries/XMCLib/inc\xmc_gpio.h **** }
 241:C:/Workspaces/BachelorThesis/imu_test/Libraries/XMCLib/inc\xmc_gpio.h **** 
 242:C:/Workspaces/BachelorThesis/imu_test/Libraries/XMCLib/inc\xmc_gpio.h **** 
 243:C:/Workspaces/BachelorThesis/imu_test/Libraries/XMCLib/inc\xmc_gpio.h **** /**
 244:C:/Workspaces/BachelorThesis/imu_test/Libraries/XMCLib/inc\xmc_gpio.h ****  * @param  port constant pointer pointing to GPIO port, to access hardware register Pn_OMR.
 245:C:/Workspaces/BachelorThesis/imu_test/Libraries/XMCLib/inc\xmc_gpio.h ****  * @param  pin	Port pin number.
 246:C:/Workspaces/BachelorThesis/imu_test/Libraries/XMCLib/inc\xmc_gpio.h ****  *
 247:C:/Workspaces/BachelorThesis/imu_test/Libraries/XMCLib/inc\xmc_gpio.h ****  * @return None
 248:C:/Workspaces/BachelorThesis/imu_test/Libraries/XMCLib/inc\xmc_gpio.h ****  *
 249:C:/Workspaces/BachelorThesis/imu_test/Libraries/XMCLib/inc\xmc_gpio.h ****  * \par<b>Description:</b><br>
 250:C:/Workspaces/BachelorThesis/imu_test/Libraries/XMCLib/inc\xmc_gpio.h ****  *  Sets port pin output to high. It configures hardware registers Pn_OMR.
 251:C:/Workspaces/BachelorThesis/imu_test/Libraries/XMCLib/inc\xmc_gpio.h ****  *
 252:C:/Workspaces/BachelorThesis/imu_test/Libraries/XMCLib/inc\xmc_gpio.h ****  *  \par<b>Related APIs:</b><BR>
 253:C:/Workspaces/BachelorThesis/imu_test/Libraries/XMCLib/inc\xmc_gpio.h ****  *  XMC_GPIO_SetOutputLow()
 254:C:/Workspaces/BachelorThesis/imu_test/Libraries/XMCLib/inc\xmc_gpio.h ****  *
 255:C:/Workspaces/BachelorThesis/imu_test/Libraries/XMCLib/inc\xmc_gpio.h ****  * \par<b>Note:</b><br>
 256:C:/Workspaces/BachelorThesis/imu_test/Libraries/XMCLib/inc\xmc_gpio.h ****  * Prior to this api, user has to configure port pin to output mode using XMC_GPIO_SetMode().\n
 257:C:/Workspaces/BachelorThesis/imu_test/Libraries/XMCLib/inc\xmc_gpio.h ****  * Register Pn_OMR is virtual and does not contain any flip-flop. A read action delivers the value 
 258:C:/Workspaces/BachelorThesis/imu_test/Libraries/XMCLib/inc\xmc_gpio.h ****  *
 259:C:/Workspaces/BachelorThesis/imu_test/Libraries/XMCLib/inc\xmc_gpio.h ****  */
 260:C:/Workspaces/BachelorThesis/imu_test/Libraries/XMCLib/inc\xmc_gpio.h **** 
 261:C:/Workspaces/BachelorThesis/imu_test/Libraries/XMCLib/inc\xmc_gpio.h **** __STATIC_INLINE void XMC_GPIO_SetOutputHigh(XMC_GPIO_PORT_t *const port, const uint8_t pin)
 262:C:/Workspaces/BachelorThesis/imu_test/Libraries/XMCLib/inc\xmc_gpio.h **** {
  27              	 .loc 1 262 0
  28              	 .cfi_startproc
  29              	 
  30              	 
  31              	 
  32 0000 80B4     	 push {r7}
  33              	.LCFI0:
  34              	 .cfi_def_cfa_offset 4
  35              	 .cfi_offset 7,-4
  36 0002 83B0     	 sub sp,sp,#12
  37              	.LCFI1:
  38              	 .cfi_def_cfa_offset 16
  39 0004 00AF     	 add r7,sp,#0
  40              	.LCFI2:
  41              	 .cfi_def_cfa_register 7
  42 0006 7860     	 str r0,[r7,#4]
  43 0008 0B46     	 mov r3,r1
  44 000a FB70     	 strb r3,[r7,#3]
 263:C:/Workspaces/BachelorThesis/imu_test/Libraries/XMCLib/inc\xmc_gpio.h ****   XMC_ASSERT("XMC_GPIO_SetOutputHigh: Invalid port", XMC_GPIO_CHECK_OUTPUT_PORT(port));
 264:C:/Workspaces/BachelorThesis/imu_test/Libraries/XMCLib/inc\xmc_gpio.h **** 
 265:C:/Workspaces/BachelorThesis/imu_test/Libraries/XMCLib/inc\xmc_gpio.h ****   port->OMR = (uint32_t)0x1U << pin;
  45              	 .loc 1 265 0
  46 000c FB78     	 ldrb r3,[r7,#3]
  47 000e 0122     	 movs r2,#1
  48 0010 9A40     	 lsls r2,r2,r3
  49 0012 7B68     	 ldr r3,[r7,#4]
  50 0014 5A60     	 str r2,[r3,#4]
 266:C:/Workspaces/BachelorThesis/imu_test/Libraries/XMCLib/inc\xmc_gpio.h **** }
  51              	 .loc 1 266 0
  52 0016 0C37     	 adds r7,r7,#12
  53              	.LCFI3:
  54              	 .cfi_def_cfa_offset 4
  55 0018 BD46     	 mov sp,r7
  56              	.LCFI4:
  57              	 .cfi_def_cfa_register 13
  58              	 
  59 001a 5DF8047B 	 ldr r7,[sp],#4
  60              	.LCFI5:
  61              	 .cfi_restore 7
  62              	 .cfi_def_cfa_offset 0
  63 001e 7047     	 bx lr
  64              	 .cfi_endproc
  65              	.LFE175:
  67              	 .section .text.XMC_GPIO_SetOutputLow,"ax",%progbits
  68              	 .align 2
  69              	 .thumb
  70              	 .thumb_func
  72              	XMC_GPIO_SetOutputLow:
  73              	.LFB176:
 267:C:/Workspaces/BachelorThesis/imu_test/Libraries/XMCLib/inc\xmc_gpio.h **** 
 268:C:/Workspaces/BachelorThesis/imu_test/Libraries/XMCLib/inc\xmc_gpio.h **** /**
 269:C:/Workspaces/BachelorThesis/imu_test/Libraries/XMCLib/inc\xmc_gpio.h ****  *
 270:C:/Workspaces/BachelorThesis/imu_test/Libraries/XMCLib/inc\xmc_gpio.h ****  * @param  port	constant pointer pointing to GPIO port, to access hardware register Pn_OMR.
 271:C:/Workspaces/BachelorThesis/imu_test/Libraries/XMCLib/inc\xmc_gpio.h ****  * @param  pin	port pin number.
 272:C:/Workspaces/BachelorThesis/imu_test/Libraries/XMCLib/inc\xmc_gpio.h ****  *
 273:C:/Workspaces/BachelorThesis/imu_test/Libraries/XMCLib/inc\xmc_gpio.h ****  * @return  None
 274:C:/Workspaces/BachelorThesis/imu_test/Libraries/XMCLib/inc\xmc_gpio.h ****  *
 275:C:/Workspaces/BachelorThesis/imu_test/Libraries/XMCLib/inc\xmc_gpio.h ****  *\par<b>Description:</b><br>
 276:C:/Workspaces/BachelorThesis/imu_test/Libraries/XMCLib/inc\xmc_gpio.h ****  * Sets port pin output to low. It configures hardware registers Pn_OMR.\n
 277:C:/Workspaces/BachelorThesis/imu_test/Libraries/XMCLib/inc\xmc_gpio.h ****  *
 278:C:/Workspaces/BachelorThesis/imu_test/Libraries/XMCLib/inc\xmc_gpio.h ****  * \par<b>Related APIs:</b><BR>>
 279:C:/Workspaces/BachelorThesis/imu_test/Libraries/XMCLib/inc\xmc_gpio.h ****  * XMC_GPIO_SetOutputHigh()
 280:C:/Workspaces/BachelorThesis/imu_test/Libraries/XMCLib/inc\xmc_gpio.h ****  *
 281:C:/Workspaces/BachelorThesis/imu_test/Libraries/XMCLib/inc\xmc_gpio.h ****  *\par<b>Note:</b><br>
 282:C:/Workspaces/BachelorThesis/imu_test/Libraries/XMCLib/inc\xmc_gpio.h ****  * Prior to this api, user has to configure port pin to output mode using XMC_GPIO_SetMode().
 283:C:/Workspaces/BachelorThesis/imu_test/Libraries/XMCLib/inc\xmc_gpio.h ****  * Register Pn_OMR is virtual and does not contain any flip-flop. A read action delivers the value 
 284:C:/Workspaces/BachelorThesis/imu_test/Libraries/XMCLib/inc\xmc_gpio.h ****  *
 285:C:/Workspaces/BachelorThesis/imu_test/Libraries/XMCLib/inc\xmc_gpio.h ****  */
 286:C:/Workspaces/BachelorThesis/imu_test/Libraries/XMCLib/inc\xmc_gpio.h **** 
 287:C:/Workspaces/BachelorThesis/imu_test/Libraries/XMCLib/inc\xmc_gpio.h **** __STATIC_INLINE void XMC_GPIO_SetOutputLow(XMC_GPIO_PORT_t *const port, const uint8_t pin)
 288:C:/Workspaces/BachelorThesis/imu_test/Libraries/XMCLib/inc\xmc_gpio.h **** {
  74              	 .loc 1 288 0
  75              	 .cfi_startproc
  76              	 
  77              	 
  78              	 
  79 0000 80B4     	 push {r7}
  80              	.LCFI6:
  81              	 .cfi_def_cfa_offset 4
  82              	 .cfi_offset 7,-4
  83 0002 83B0     	 sub sp,sp,#12
  84              	.LCFI7:
  85              	 .cfi_def_cfa_offset 16
  86 0004 00AF     	 add r7,sp,#0
  87              	.LCFI8:
  88              	 .cfi_def_cfa_register 7
  89 0006 7860     	 str r0,[r7,#4]
  90 0008 0B46     	 mov r3,r1
  91 000a FB70     	 strb r3,[r7,#3]
 289:C:/Workspaces/BachelorThesis/imu_test/Libraries/XMCLib/inc\xmc_gpio.h ****   XMC_ASSERT("XMC_GPIO_SetOutputLow: Invalid port", XMC_GPIO_CHECK_OUTPUT_PORT(port));
 290:C:/Workspaces/BachelorThesis/imu_test/Libraries/XMCLib/inc\xmc_gpio.h **** 
 291:C:/Workspaces/BachelorThesis/imu_test/Libraries/XMCLib/inc\xmc_gpio.h ****   port->OMR = 0x10000U << pin;
  92              	 .loc 1 291 0
  93 000c FB78     	 ldrb r3,[r7,#3]
  94 000e 4FF48032 	 mov r2,#65536
  95 0012 9A40     	 lsls r2,r2,r3
  96 0014 7B68     	 ldr r3,[r7,#4]
  97 0016 5A60     	 str r2,[r3,#4]
 292:C:/Workspaces/BachelorThesis/imu_test/Libraries/XMCLib/inc\xmc_gpio.h **** }
  98              	 .loc 1 292 0
  99 0018 0C37     	 adds r7,r7,#12
 100              	.LCFI9:
 101              	 .cfi_def_cfa_offset 4
 102 001a BD46     	 mov sp,r7
 103              	.LCFI10:
 104              	 .cfi_def_cfa_register 13
 105              	 
 106 001c 5DF8047B 	 ldr r7,[sp],#4
 107              	.LCFI11:
 108              	 .cfi_restore 7
 109              	 .cfi_def_cfa_offset 0
 110 0020 7047     	 bx lr
 111              	 .cfi_endproc
 112              	.LFE176:
 114 0022 00BF     	 .section .text.XMC_GPIO_ToggleOutput,"ax",%progbits
 115              	 .align 2
 116              	 .thumb
 117              	 .thumb_func
 119              	XMC_GPIO_ToggleOutput:
 120              	.LFB177:
 293:C:/Workspaces/BachelorThesis/imu_test/Libraries/XMCLib/inc\xmc_gpio.h **** 
 294:C:/Workspaces/BachelorThesis/imu_test/Libraries/XMCLib/inc\xmc_gpio.h **** /**
 295:C:/Workspaces/BachelorThesis/imu_test/Libraries/XMCLib/inc\xmc_gpio.h ****  *
 296:C:/Workspaces/BachelorThesis/imu_test/Libraries/XMCLib/inc\xmc_gpio.h ****  * @param port constant pointer pointing to GPIO port, to access hardware register Pn_OMR.
 297:C:/Workspaces/BachelorThesis/imu_test/Libraries/XMCLib/inc\xmc_gpio.h ****  * @param pin  port pin number.
 298:C:/Workspaces/BachelorThesis/imu_test/Libraries/XMCLib/inc\xmc_gpio.h ****  *
 299:C:/Workspaces/BachelorThesis/imu_test/Libraries/XMCLib/inc\xmc_gpio.h ****  * @return None
 300:C:/Workspaces/BachelorThesis/imu_test/Libraries/XMCLib/inc\xmc_gpio.h ****  *
 301:C:/Workspaces/BachelorThesis/imu_test/Libraries/XMCLib/inc\xmc_gpio.h ****  * \par<b>Description:</b><br>
 302:C:/Workspaces/BachelorThesis/imu_test/Libraries/XMCLib/inc\xmc_gpio.h ****  * Configures port pin output to Toggle. It configures hardware registers Pn_OMR.
 303:C:/Workspaces/BachelorThesis/imu_test/Libraries/XMCLib/inc\xmc_gpio.h ****  *
 304:C:/Workspaces/BachelorThesis/imu_test/Libraries/XMCLib/inc\xmc_gpio.h ****  * \par<b>Related APIs:</b><BR>
 305:C:/Workspaces/BachelorThesis/imu_test/Libraries/XMCLib/inc\xmc_gpio.h ****  * XMC_GPIO_SetOutputHigh(), XMC_GPIO_SetOutputLow().
 306:C:/Workspaces/BachelorThesis/imu_test/Libraries/XMCLib/inc\xmc_gpio.h ****  *
 307:C:/Workspaces/BachelorThesis/imu_test/Libraries/XMCLib/inc\xmc_gpio.h ****  * \par<b>Note:</b><br>
 308:C:/Workspaces/BachelorThesis/imu_test/Libraries/XMCLib/inc\xmc_gpio.h ****  * Prior to this api, user has to configure port pin to output mode using XMC_GPIO_SetMode(). Regis
 309:C:/Workspaces/BachelorThesis/imu_test/Libraries/XMCLib/inc\xmc_gpio.h ****  * and does not contain any flip-flop. A read action delivers the value of 0.
 310:C:/Workspaces/BachelorThesis/imu_test/Libraries/XMCLib/inc\xmc_gpio.h ****  *
 311:C:/Workspaces/BachelorThesis/imu_test/Libraries/XMCLib/inc\xmc_gpio.h ****  */
 312:C:/Workspaces/BachelorThesis/imu_test/Libraries/XMCLib/inc\xmc_gpio.h **** 
 313:C:/Workspaces/BachelorThesis/imu_test/Libraries/XMCLib/inc\xmc_gpio.h **** __STATIC_INLINE void XMC_GPIO_ToggleOutput(XMC_GPIO_PORT_t *const port, const uint8_t pin)
 314:C:/Workspaces/BachelorThesis/imu_test/Libraries/XMCLib/inc\xmc_gpio.h **** {
 121              	 .loc 1 314 0
 122              	 .cfi_startproc
 123              	 
 124              	 
 125              	 
 126 0000 80B4     	 push {r7}
 127              	.LCFI12:
 128              	 .cfi_def_cfa_offset 4
 129              	 .cfi_offset 7,-4
 130 0002 83B0     	 sub sp,sp,#12
 131              	.LCFI13:
 132              	 .cfi_def_cfa_offset 16
 133 0004 00AF     	 add r7,sp,#0
 134              	.LCFI14:
 135              	 .cfi_def_cfa_register 7
 136 0006 7860     	 str r0,[r7,#4]
 137 0008 0B46     	 mov r3,r1
 138 000a FB70     	 strb r3,[r7,#3]
 315:C:/Workspaces/BachelorThesis/imu_test/Libraries/XMCLib/inc\xmc_gpio.h ****   XMC_ASSERT("XMC_GPIO_ToggleOutput: Invalid port", XMC_GPIO_CHECK_OUTPUT_PORT(port));
 316:C:/Workspaces/BachelorThesis/imu_test/Libraries/XMCLib/inc\xmc_gpio.h **** 
 317:C:/Workspaces/BachelorThesis/imu_test/Libraries/XMCLib/inc\xmc_gpio.h ****   port->OMR = 0x10001U << pin;
 139              	 .loc 1 317 0
 140 000c FB78     	 ldrb r3,[r7,#3]
 141 000e 4FF00112 	 mov r2,#65537
 142 0012 9A40     	 lsls r2,r2,r3
 143 0014 7B68     	 ldr r3,[r7,#4]
 144 0016 5A60     	 str r2,[r3,#4]
 318:C:/Workspaces/BachelorThesis/imu_test/Libraries/XMCLib/inc\xmc_gpio.h **** }
 145              	 .loc 1 318 0
 146 0018 0C37     	 adds r7,r7,#12
 147              	.LCFI15:
 148              	 .cfi_def_cfa_offset 4
 149 001a BD46     	 mov sp,r7
 150              	.LCFI16:
 151              	 .cfi_def_cfa_register 13
 152              	 
 153 001c 5DF8047B 	 ldr r7,[sp],#4
 154              	.LCFI17:
 155              	 .cfi_restore 7
 156              	 .cfi_def_cfa_offset 0
 157 0020 7047     	 bx lr
 158              	 .cfi_endproc
 159              	.LFE177:
 161 0022 00BF     	 .section .text.DIGITAL_IO_SetOutputHigh,"ax",%progbits
 162              	 .align 2
 163              	 .thumb
 164              	 .thumb_func
 166              	DIGITAL_IO_SetOutputHigh:
 167              	.LFB234:
 168              	 .file 2 "C:/Workspaces/BachelorThesis/imu_test/Dave/Generated/DIGITAL_IO/digital_io.h"
   1:C:/Workspaces/BachelorThesis/imu_test/Dave/Generated/DIGITAL_IO\digital_io.h **** /*
   2:C:/Workspaces/BachelorThesis/imu_test/Dave/Generated/DIGITAL_IO\digital_io.h ****  *
   3:C:/Workspaces/BachelorThesis/imu_test/Dave/Generated/DIGITAL_IO\digital_io.h ****  * @file digital_io.h
   4:C:/Workspaces/BachelorThesis/imu_test/Dave/Generated/DIGITAL_IO\digital_io.h ****  * @date 2021-01-08
   5:C:/Workspaces/BachelorThesis/imu_test/Dave/Generated/DIGITAL_IO\digital_io.h ****  *
   6:C:/Workspaces/BachelorThesis/imu_test/Dave/Generated/DIGITAL_IO\digital_io.h ****  * NOTE:
   7:C:/Workspaces/BachelorThesis/imu_test/Dave/Generated/DIGITAL_IO\digital_io.h ****  * This file is generated by DAVE. Any manual modification done to this file will be lost when the 
   8:C:/Workspaces/BachelorThesis/imu_test/Dave/Generated/DIGITAL_IO\digital_io.h ****  *
   9:C:/Workspaces/BachelorThesis/imu_test/Dave/Generated/DIGITAL_IO\digital_io.h ****  * @cond
  10:C:/Workspaces/BachelorThesis/imu_test/Dave/Generated/DIGITAL_IO\digital_io.h ****  **************************************************************************************************
  11:C:/Workspaces/BachelorThesis/imu_test/Dave/Generated/DIGITAL_IO\digital_io.h ****  * DIGITAL_IO v4.0.18 - The DIGITAL_IO APP is used to configure a port pin as digital Input/Output.
  12:C:/Workspaces/BachelorThesis/imu_test/Dave/Generated/DIGITAL_IO\digital_io.h ****  *
  13:C:/Workspaces/BachelorThesis/imu_test/Dave/Generated/DIGITAL_IO\digital_io.h ****  * Copyright (c) 2015-2020, Infineon Technologies AG
  14:C:/Workspaces/BachelorThesis/imu_test/Dave/Generated/DIGITAL_IO\digital_io.h ****  * All rights reserved.
  15:C:/Workspaces/BachelorThesis/imu_test/Dave/Generated/DIGITAL_IO\digital_io.h ****  *
  16:C:/Workspaces/BachelorThesis/imu_test/Dave/Generated/DIGITAL_IO\digital_io.h ****  * Redistribution and use in source and binary forms, with or without modification,are permitted pr
  17:C:/Workspaces/BachelorThesis/imu_test/Dave/Generated/DIGITAL_IO\digital_io.h ****  * following conditions are met:
  18:C:/Workspaces/BachelorThesis/imu_test/Dave/Generated/DIGITAL_IO\digital_io.h ****  *
  19:C:/Workspaces/BachelorThesis/imu_test/Dave/Generated/DIGITAL_IO\digital_io.h ****  *   Redistributions of source code must retain the above copyright notice, this list of conditions
  20:C:/Workspaces/BachelorThesis/imu_test/Dave/Generated/DIGITAL_IO\digital_io.h ****  *   disclaimer.
  21:C:/Workspaces/BachelorThesis/imu_test/Dave/Generated/DIGITAL_IO\digital_io.h ****  *
  22:C:/Workspaces/BachelorThesis/imu_test/Dave/Generated/DIGITAL_IO\digital_io.h ****  *   Redistributions in binary form must reproduce the above copyright notice, this list of conditi
  23:C:/Workspaces/BachelorThesis/imu_test/Dave/Generated/DIGITAL_IO\digital_io.h ****  *   following disclaimer in the documentation and/or other materials provided with the distributio
  24:C:/Workspaces/BachelorThesis/imu_test/Dave/Generated/DIGITAL_IO\digital_io.h ****  *
  25:C:/Workspaces/BachelorThesis/imu_test/Dave/Generated/DIGITAL_IO\digital_io.h ****  *   Neither the name of the copyright holders nor the names of its contributors may be used to end
  26:C:/Workspaces/BachelorThesis/imu_test/Dave/Generated/DIGITAL_IO\digital_io.h ****  *   products derived from this software without specific prior written permission.
  27:C:/Workspaces/BachelorThesis/imu_test/Dave/Generated/DIGITAL_IO\digital_io.h ****  *
  28:C:/Workspaces/BachelorThesis/imu_test/Dave/Generated/DIGITAL_IO\digital_io.h ****  * THIS SOFTWARE IS PROVIDED BY THE COPYRIGHT HOLDERS AND CONTRIBUTORS "AS IS" AND ANY EXPRESS OR I
  29:C:/Workspaces/BachelorThesis/imu_test/Dave/Generated/DIGITAL_IO\digital_io.h ****  * INCLUDING, BUT NOT LIMITED TO, THE IMPLIED WARRANTIES OF MERCHANTABILITY AND FITNESS FOR A PARTI
  30:C:/Workspaces/BachelorThesis/imu_test/Dave/Generated/DIGITAL_IO\digital_io.h ****  * DISCLAIMED. IN NO EVENT SHALL THE COPYRIGHT HOLDER OR CONTRIBUTORS BE LIABLE  FOR ANY DIRECT, IN
  31:C:/Workspaces/BachelorThesis/imu_test/Dave/Generated/DIGITAL_IO\digital_io.h ****  * SPECIAL, EXEMPLARY, OR CONSEQUENTIAL DAMAGES (INCLUDING, BUT NOT LIMITED TO, PROCUREMENT OF SUBS
  32:C:/Workspaces/BachelorThesis/imu_test/Dave/Generated/DIGITAL_IO\digital_io.h ****  * SERVICES; LOSS OF USE, DATA, OR PROFITS; OR BUSINESS INTERRUPTION) HOWEVER CAUSED AND ON ANY THE
  33:C:/Workspaces/BachelorThesis/imu_test/Dave/Generated/DIGITAL_IO\digital_io.h ****  * WHETHER IN CONTRACT, STRICT LIABILITY,OR TORT (INCLUDING NEGLIGENCE OR OTHERWISE) ARISING IN ANY
  34:C:/Workspaces/BachelorThesis/imu_test/Dave/Generated/DIGITAL_IO\digital_io.h ****  * USE OF THIS SOFTWARE, EVEN IF ADVISED OF THE POSSIBILITY OF SUCH DAMAGE.
  35:C:/Workspaces/BachelorThesis/imu_test/Dave/Generated/DIGITAL_IO\digital_io.h ****  *
  36:C:/Workspaces/BachelorThesis/imu_test/Dave/Generated/DIGITAL_IO\digital_io.h ****  * To improve the quality of the software, users are encouraged to share modifications, enhancement
  37:C:/Workspaces/BachelorThesis/imu_test/Dave/Generated/DIGITAL_IO\digital_io.h ****  * with Infineon Technologies AG (dave@infineon.com).
  38:C:/Workspaces/BachelorThesis/imu_test/Dave/Generated/DIGITAL_IO\digital_io.h ****  **************************************************************************************************
  39:C:/Workspaces/BachelorThesis/imu_test/Dave/Generated/DIGITAL_IO\digital_io.h ****  *
  40:C:/Workspaces/BachelorThesis/imu_test/Dave/Generated/DIGITAL_IO\digital_io.h ****  * Change History
  41:C:/Workspaces/BachelorThesis/imu_test/Dave/Generated/DIGITAL_IO\digital_io.h ****  * --------------
  42:C:/Workspaces/BachelorThesis/imu_test/Dave/Generated/DIGITAL_IO\digital_io.h ****  *
  43:C:/Workspaces/BachelorThesis/imu_test/Dave/Generated/DIGITAL_IO\digital_io.h ****  * 2015-02-16
  44:C:/Workspaces/BachelorThesis/imu_test/Dave/Generated/DIGITAL_IO\digital_io.h ****  *     - Initial version
  45:C:/Workspaces/BachelorThesis/imu_test/Dave/Generated/DIGITAL_IO\digital_io.h ****  *
  46:C:/Workspaces/BachelorThesis/imu_test/Dave/Generated/DIGITAL_IO\digital_io.h ****  * 2015-04-22
  47:C:/Workspaces/BachelorThesis/imu_test/Dave/Generated/DIGITAL_IO\digital_io.h ****  *     - XMC_ASSERT is added in static inline functions.<br>
  48:C:/Workspaces/BachelorThesis/imu_test/Dave/Generated/DIGITAL_IO\digital_io.h ****  *
  49:C:/Workspaces/BachelorThesis/imu_test/Dave/Generated/DIGITAL_IO\digital_io.h ****  * 2015-06-20
  50:C:/Workspaces/BachelorThesis/imu_test/Dave/Generated/DIGITAL_IO\digital_io.h ****  *     - Version check added for XMCLib dependency.<br>
  51:C:/Workspaces/BachelorThesis/imu_test/Dave/Generated/DIGITAL_IO\digital_io.h ****  *
  52:C:/Workspaces/BachelorThesis/imu_test/Dave/Generated/DIGITAL_IO\digital_io.h ****  * 2015-12-22
  53:C:/Workspaces/BachelorThesis/imu_test/Dave/Generated/DIGITAL_IO\digital_io.h ****  *     - Added hardware controlled IO feature.
  54:C:/Workspaces/BachelorThesis/imu_test/Dave/Generated/DIGITAL_IO\digital_io.h ****  * 2016-07-08:
  55:C:/Workspaces/BachelorThesis/imu_test/Dave/Generated/DIGITAL_IO\digital_io.h ****  *     - Fixed incorrect case for an included header.<br>
  56:C:/Workspaces/BachelorThesis/imu_test/Dave/Generated/DIGITAL_IO\digital_io.h ****  * 2021-01-08:
  57:C:/Workspaces/BachelorThesis/imu_test/Dave/Generated/DIGITAL_IO\digital_io.h ****  *     - Modified check for minimum XMCLib version
  58:C:/Workspaces/BachelorThesis/imu_test/Dave/Generated/DIGITAL_IO\digital_io.h ****  *
  59:C:/Workspaces/BachelorThesis/imu_test/Dave/Generated/DIGITAL_IO\digital_io.h ****  * @endcond
  60:C:/Workspaces/BachelorThesis/imu_test/Dave/Generated/DIGITAL_IO\digital_io.h ****  *
  61:C:/Workspaces/BachelorThesis/imu_test/Dave/Generated/DIGITAL_IO\digital_io.h ****  */
  62:C:/Workspaces/BachelorThesis/imu_test/Dave/Generated/DIGITAL_IO\digital_io.h **** 
  63:C:/Workspaces/BachelorThesis/imu_test/Dave/Generated/DIGITAL_IO\digital_io.h **** /**************************************************************************************************
  64:C:/Workspaces/BachelorThesis/imu_test/Dave/Generated/DIGITAL_IO\digital_io.h ****  * HEADER FILES
  65:C:/Workspaces/BachelorThesis/imu_test/Dave/Generated/DIGITAL_IO\digital_io.h ****  **************************************************************************************************
  66:C:/Workspaces/BachelorThesis/imu_test/Dave/Generated/DIGITAL_IO\digital_io.h **** 
  67:C:/Workspaces/BachelorThesis/imu_test/Dave/Generated/DIGITAL_IO\digital_io.h **** #ifndef DIGITAL_IO_H
  68:C:/Workspaces/BachelorThesis/imu_test/Dave/Generated/DIGITAL_IO\digital_io.h **** #define DIGITAL_IO_H
  69:C:/Workspaces/BachelorThesis/imu_test/Dave/Generated/DIGITAL_IO\digital_io.h **** 
  70:C:/Workspaces/BachelorThesis/imu_test/Dave/Generated/DIGITAL_IO\digital_io.h **** #include "xmc_gpio.h"
  71:C:/Workspaces/BachelorThesis/imu_test/Dave/Generated/DIGITAL_IO\digital_io.h **** #include "DAVE_Common.h"
  72:C:/Workspaces/BachelorThesis/imu_test/Dave/Generated/DIGITAL_IO\digital_io.h **** #include "digital_io_conf.h"
  73:C:/Workspaces/BachelorThesis/imu_test/Dave/Generated/DIGITAL_IO\digital_io.h **** 
  74:C:/Workspaces/BachelorThesis/imu_test/Dave/Generated/DIGITAL_IO\digital_io.h **** /**************************************************************************************************
  75:C:/Workspaces/BachelorThesis/imu_test/Dave/Generated/DIGITAL_IO\digital_io.h ****  * MACROS
  76:C:/Workspaces/BachelorThesis/imu_test/Dave/Generated/DIGITAL_IO\digital_io.h ****  **************************************************************************************************
  77:C:/Workspaces/BachelorThesis/imu_test/Dave/Generated/DIGITAL_IO\digital_io.h **** #define DIGITAL_IO_XMC_LIB_MAJOR_VERSION 2
  78:C:/Workspaces/BachelorThesis/imu_test/Dave/Generated/DIGITAL_IO\digital_io.h **** #define DIGITAL_IO_XMC_LIB_MINOR_VERSION 0
  79:C:/Workspaces/BachelorThesis/imu_test/Dave/Generated/DIGITAL_IO\digital_io.h **** #define DIGITAL_IO_XMC_LIB_PATCH_VERSION 0
  80:C:/Workspaces/BachelorThesis/imu_test/Dave/Generated/DIGITAL_IO\digital_io.h **** 
  81:C:/Workspaces/BachelorThesis/imu_test/Dave/Generated/DIGITAL_IO\digital_io.h **** #if !((XMC_LIB_MAJOR_VERSION > DIGITAL_IO_XMC_LIB_MAJOR_VERSION) ||\
  82:C:/Workspaces/BachelorThesis/imu_test/Dave/Generated/DIGITAL_IO\digital_io.h ****       ((XMC_LIB_MAJOR_VERSION == DIGITAL_IO_XMC_LIB_MAJOR_VERSION) && (XMC_LIB_MINOR_VERSION > DIGI
  83:C:/Workspaces/BachelorThesis/imu_test/Dave/Generated/DIGITAL_IO\digital_io.h ****       ((XMC_LIB_MAJOR_VERSION == DIGITAL_IO_XMC_LIB_MAJOR_VERSION) && (XMC_LIB_MINOR_VERSION == DIG
  84:C:/Workspaces/BachelorThesis/imu_test/Dave/Generated/DIGITAL_IO\digital_io.h **** #error "DIGITAL_IO requires XMC Peripheral Library v2.0.0 or higher"
  85:C:/Workspaces/BachelorThesis/imu_test/Dave/Generated/DIGITAL_IO\digital_io.h **** #endif
  86:C:/Workspaces/BachelorThesis/imu_test/Dave/Generated/DIGITAL_IO\digital_io.h **** 
  87:C:/Workspaces/BachelorThesis/imu_test/Dave/Generated/DIGITAL_IO\digital_io.h ****  /*************************************************************************************************
  88:C:/Workspaces/BachelorThesis/imu_test/Dave/Generated/DIGITAL_IO\digital_io.h ****  * ENUMS
  89:C:/Workspaces/BachelorThesis/imu_test/Dave/Generated/DIGITAL_IO\digital_io.h ****  **************************************************************************************************
  90:C:/Workspaces/BachelorThesis/imu_test/Dave/Generated/DIGITAL_IO\digital_io.h **** 
  91:C:/Workspaces/BachelorThesis/imu_test/Dave/Generated/DIGITAL_IO\digital_io.h **** /**
  92:C:/Workspaces/BachelorThesis/imu_test/Dave/Generated/DIGITAL_IO\digital_io.h **** * @ingroup DIGITAL_IO_enumerations
  93:C:/Workspaces/BachelorThesis/imu_test/Dave/Generated/DIGITAL_IO\digital_io.h **** * @{
  94:C:/Workspaces/BachelorThesis/imu_test/Dave/Generated/DIGITAL_IO\digital_io.h **** */
  95:C:/Workspaces/BachelorThesis/imu_test/Dave/Generated/DIGITAL_IO\digital_io.h **** 
  96:C:/Workspaces/BachelorThesis/imu_test/Dave/Generated/DIGITAL_IO\digital_io.h **** /**
  97:C:/Workspaces/BachelorThesis/imu_test/Dave/Generated/DIGITAL_IO\digital_io.h **** * @brief Initialization status of DIGITAL_IO APP.
  98:C:/Workspaces/BachelorThesis/imu_test/Dave/Generated/DIGITAL_IO\digital_io.h **** */
  99:C:/Workspaces/BachelorThesis/imu_test/Dave/Generated/DIGITAL_IO\digital_io.h **** typedef enum DIGITAL_IO_STATUS
 100:C:/Workspaces/BachelorThesis/imu_test/Dave/Generated/DIGITAL_IO\digital_io.h **** {
 101:C:/Workspaces/BachelorThesis/imu_test/Dave/Generated/DIGITAL_IO\digital_io.h ****   DIGITAL_IO_STATUS_OK = 0U,/**< 0=Status OK */
 102:C:/Workspaces/BachelorThesis/imu_test/Dave/Generated/DIGITAL_IO\digital_io.h ****   DIGITAL_IO_STATUS_FAILURE = 1U/**< 1=Status Failed */
 103:C:/Workspaces/BachelorThesis/imu_test/Dave/Generated/DIGITAL_IO\digital_io.h **** } DIGITAL_IO_STATUS_t;
 104:C:/Workspaces/BachelorThesis/imu_test/Dave/Generated/DIGITAL_IO\digital_io.h **** 
 105:C:/Workspaces/BachelorThesis/imu_test/Dave/Generated/DIGITAL_IO\digital_io.h **** /**
 106:C:/Workspaces/BachelorThesis/imu_test/Dave/Generated/DIGITAL_IO\digital_io.h **** * @}
 107:C:/Workspaces/BachelorThesis/imu_test/Dave/Generated/DIGITAL_IO\digital_io.h **** */
 108:C:/Workspaces/BachelorThesis/imu_test/Dave/Generated/DIGITAL_IO\digital_io.h **** 
 109:C:/Workspaces/BachelorThesis/imu_test/Dave/Generated/DIGITAL_IO\digital_io.h **** /**************************************************************************************************
 110:C:/Workspaces/BachelorThesis/imu_test/Dave/Generated/DIGITAL_IO\digital_io.h ****  * DATA STRUCTURES
 111:C:/Workspaces/BachelorThesis/imu_test/Dave/Generated/DIGITAL_IO\digital_io.h ****  **************************************************************************************************
 112:C:/Workspaces/BachelorThesis/imu_test/Dave/Generated/DIGITAL_IO\digital_io.h **** /**
 113:C:/Workspaces/BachelorThesis/imu_test/Dave/Generated/DIGITAL_IO\digital_io.h **** * @ingroup DIGITAL_IO_datastructures
 114:C:/Workspaces/BachelorThesis/imu_test/Dave/Generated/DIGITAL_IO\digital_io.h **** * @{
 115:C:/Workspaces/BachelorThesis/imu_test/Dave/Generated/DIGITAL_IO\digital_io.h **** */
 116:C:/Workspaces/BachelorThesis/imu_test/Dave/Generated/DIGITAL_IO\digital_io.h **** 
 117:C:/Workspaces/BachelorThesis/imu_test/Dave/Generated/DIGITAL_IO\digital_io.h **** /**
 118:C:/Workspaces/BachelorThesis/imu_test/Dave/Generated/DIGITAL_IO\digital_io.h **** * @brief Initialization data structure of DIGITAL_IO APP
 119:C:/Workspaces/BachelorThesis/imu_test/Dave/Generated/DIGITAL_IO\digital_io.h **** */
 120:C:/Workspaces/BachelorThesis/imu_test/Dave/Generated/DIGITAL_IO\digital_io.h **** typedef struct DIGITAL_IO
 121:C:/Workspaces/BachelorThesis/imu_test/Dave/Generated/DIGITAL_IO\digital_io.h **** {
 122:C:/Workspaces/BachelorThesis/imu_test/Dave/Generated/DIGITAL_IO\digital_io.h ****   XMC_GPIO_PORT_t *const gpio_port;             /**< port number */
 123:C:/Workspaces/BachelorThesis/imu_test/Dave/Generated/DIGITAL_IO\digital_io.h ****   const XMC_GPIO_CONFIG_t gpio_config;          /**< mode, initial output level and pad driver stre
 124:C:/Workspaces/BachelorThesis/imu_test/Dave/Generated/DIGITAL_IO\digital_io.h ****   const uint8_t gpio_pin;                       /**< pin number */
 125:C:/Workspaces/BachelorThesis/imu_test/Dave/Generated/DIGITAL_IO\digital_io.h ****   const XMC_GPIO_HWCTRL_t hwctrl;               /**< Hardware port control */
 126:C:/Workspaces/BachelorThesis/imu_test/Dave/Generated/DIGITAL_IO\digital_io.h **** } DIGITAL_IO_t;
 127:C:/Workspaces/BachelorThesis/imu_test/Dave/Generated/DIGITAL_IO\digital_io.h **** 
 128:C:/Workspaces/BachelorThesis/imu_test/Dave/Generated/DIGITAL_IO\digital_io.h **** 
 129:C:/Workspaces/BachelorThesis/imu_test/Dave/Generated/DIGITAL_IO\digital_io.h **** /**
 130:C:/Workspaces/BachelorThesis/imu_test/Dave/Generated/DIGITAL_IO\digital_io.h **** * @}
 131:C:/Workspaces/BachelorThesis/imu_test/Dave/Generated/DIGITAL_IO\digital_io.h **** */
 132:C:/Workspaces/BachelorThesis/imu_test/Dave/Generated/DIGITAL_IO\digital_io.h **** 
 133:C:/Workspaces/BachelorThesis/imu_test/Dave/Generated/DIGITAL_IO\digital_io.h **** 
 134:C:/Workspaces/BachelorThesis/imu_test/Dave/Generated/DIGITAL_IO\digital_io.h **** /**************************************************************************************************
 135:C:/Workspaces/BachelorThesis/imu_test/Dave/Generated/DIGITAL_IO\digital_io.h ****  * API Prototypes
 136:C:/Workspaces/BachelorThesis/imu_test/Dave/Generated/DIGITAL_IO\digital_io.h ****  **************************************************************************************************
 137:C:/Workspaces/BachelorThesis/imu_test/Dave/Generated/DIGITAL_IO\digital_io.h **** 
 138:C:/Workspaces/BachelorThesis/imu_test/Dave/Generated/DIGITAL_IO\digital_io.h **** 
 139:C:/Workspaces/BachelorThesis/imu_test/Dave/Generated/DIGITAL_IO\digital_io.h **** #ifdef __cplusplus
 140:C:/Workspaces/BachelorThesis/imu_test/Dave/Generated/DIGITAL_IO\digital_io.h **** extern "C" {
 141:C:/Workspaces/BachelorThesis/imu_test/Dave/Generated/DIGITAL_IO\digital_io.h **** #endif
 142:C:/Workspaces/BachelorThesis/imu_test/Dave/Generated/DIGITAL_IO\digital_io.h **** 
 143:C:/Workspaces/BachelorThesis/imu_test/Dave/Generated/DIGITAL_IO\digital_io.h **** /**
 144:C:/Workspaces/BachelorThesis/imu_test/Dave/Generated/DIGITAL_IO\digital_io.h **** * @ingroup DIGITAL_IO_apidoc
 145:C:/Workspaces/BachelorThesis/imu_test/Dave/Generated/DIGITAL_IO\digital_io.h **** * @{
 146:C:/Workspaces/BachelorThesis/imu_test/Dave/Generated/DIGITAL_IO\digital_io.h **** */
 147:C:/Workspaces/BachelorThesis/imu_test/Dave/Generated/DIGITAL_IO\digital_io.h **** 
 148:C:/Workspaces/BachelorThesis/imu_test/Dave/Generated/DIGITAL_IO\digital_io.h **** 
 149:C:/Workspaces/BachelorThesis/imu_test/Dave/Generated/DIGITAL_IO\digital_io.h **** 
 150:C:/Workspaces/BachelorThesis/imu_test/Dave/Generated/DIGITAL_IO\digital_io.h **** /**
 151:C:/Workspaces/BachelorThesis/imu_test/Dave/Generated/DIGITAL_IO\digital_io.h **** * @brief Get DIGITAL_IO APP version
 152:C:/Workspaces/BachelorThesis/imu_test/Dave/Generated/DIGITAL_IO\digital_io.h **** * @return DAVE_APP_VERSION_t APP version information (major, minor and patch number)
 153:C:/Workspaces/BachelorThesis/imu_test/Dave/Generated/DIGITAL_IO\digital_io.h **** *
 154:C:/Workspaces/BachelorThesis/imu_test/Dave/Generated/DIGITAL_IO\digital_io.h **** * \par<b>Description: </b><br>
 155:C:/Workspaces/BachelorThesis/imu_test/Dave/Generated/DIGITAL_IO\digital_io.h **** * The function can be used to check application software compatibility with a
 156:C:/Workspaces/BachelorThesis/imu_test/Dave/Generated/DIGITAL_IO\digital_io.h **** * specific version of the APP.
 157:C:/Workspaces/BachelorThesis/imu_test/Dave/Generated/DIGITAL_IO\digital_io.h **** *
 158:C:/Workspaces/BachelorThesis/imu_test/Dave/Generated/DIGITAL_IO\digital_io.h **** * Example Usage:
 159:C:/Workspaces/BachelorThesis/imu_test/Dave/Generated/DIGITAL_IO\digital_io.h **** *
 160:C:/Workspaces/BachelorThesis/imu_test/Dave/Generated/DIGITAL_IO\digital_io.h **** * @code
 161:C:/Workspaces/BachelorThesis/imu_test/Dave/Generated/DIGITAL_IO\digital_io.h **** * #include "DAVE.h"
 162:C:/Workspaces/BachelorThesis/imu_test/Dave/Generated/DIGITAL_IO\digital_io.h **** *
 163:C:/Workspaces/BachelorThesis/imu_test/Dave/Generated/DIGITAL_IO\digital_io.h **** * int main(void)
 164:C:/Workspaces/BachelorThesis/imu_test/Dave/Generated/DIGITAL_IO\digital_io.h **** * {
 165:C:/Workspaces/BachelorThesis/imu_test/Dave/Generated/DIGITAL_IO\digital_io.h **** *   DAVE_STATUS_t init_status;
 166:C:/Workspaces/BachelorThesis/imu_test/Dave/Generated/DIGITAL_IO\digital_io.h **** *   DAVE_APP_VERSION_t version;
 167:C:/Workspaces/BachelorThesis/imu_test/Dave/Generated/DIGITAL_IO\digital_io.h **** *
 168:C:/Workspaces/BachelorThesis/imu_test/Dave/Generated/DIGITAL_IO\digital_io.h **** *   // Initialize DIGITAL_IO APP:
 169:C:/Workspaces/BachelorThesis/imu_test/Dave/Generated/DIGITAL_IO\digital_io.h **** *   // DIGITAL_IO_Init() is called from within DAVE_Init().
 170:C:/Workspaces/BachelorThesis/imu_test/Dave/Generated/DIGITAL_IO\digital_io.h **** *   init_status = DAVE_Init();
 171:C:/Workspaces/BachelorThesis/imu_test/Dave/Generated/DIGITAL_IO\digital_io.h **** *   if(init_status == DAVE_STATUS_SUCCESS)
 172:C:/Workspaces/BachelorThesis/imu_test/Dave/Generated/DIGITAL_IO\digital_io.h **** *   {
 173:C:/Workspaces/BachelorThesis/imu_test/Dave/Generated/DIGITAL_IO\digital_io.h **** *     version = DIGITAL_IO_GetAppVersion();
 174:C:/Workspaces/BachelorThesis/imu_test/Dave/Generated/DIGITAL_IO\digital_io.h **** *     if (version.major != 4U) {
 175:C:/Workspaces/BachelorThesis/imu_test/Dave/Generated/DIGITAL_IO\digital_io.h **** *     // Probably, not the right version.
 176:C:/Workspaces/BachelorThesis/imu_test/Dave/Generated/DIGITAL_IO\digital_io.h **** *     }
 177:C:/Workspaces/BachelorThesis/imu_test/Dave/Generated/DIGITAL_IO\digital_io.h **** *   }
 178:C:/Workspaces/BachelorThesis/imu_test/Dave/Generated/DIGITAL_IO\digital_io.h **** *
 179:C:/Workspaces/BachelorThesis/imu_test/Dave/Generated/DIGITAL_IO\digital_io.h **** *     // More code here
 180:C:/Workspaces/BachelorThesis/imu_test/Dave/Generated/DIGITAL_IO\digital_io.h **** *     while(1) {
 181:C:/Workspaces/BachelorThesis/imu_test/Dave/Generated/DIGITAL_IO\digital_io.h **** *
 182:C:/Workspaces/BachelorThesis/imu_test/Dave/Generated/DIGITAL_IO\digital_io.h **** *     }
 183:C:/Workspaces/BachelorThesis/imu_test/Dave/Generated/DIGITAL_IO\digital_io.h **** *     return (1);
 184:C:/Workspaces/BachelorThesis/imu_test/Dave/Generated/DIGITAL_IO\digital_io.h **** *  }
 185:C:/Workspaces/BachelorThesis/imu_test/Dave/Generated/DIGITAL_IO\digital_io.h **** * @endcode<BR>
 186:C:/Workspaces/BachelorThesis/imu_test/Dave/Generated/DIGITAL_IO\digital_io.h **** */
 187:C:/Workspaces/BachelorThesis/imu_test/Dave/Generated/DIGITAL_IO\digital_io.h **** 
 188:C:/Workspaces/BachelorThesis/imu_test/Dave/Generated/DIGITAL_IO\digital_io.h **** DAVE_APP_VERSION_t DIGITAL_IO_GetAppVersion(void);
 189:C:/Workspaces/BachelorThesis/imu_test/Dave/Generated/DIGITAL_IO\digital_io.h **** 
 190:C:/Workspaces/BachelorThesis/imu_test/Dave/Generated/DIGITAL_IO\digital_io.h **** /**
 191:C:/Workspaces/BachelorThesis/imu_test/Dave/Generated/DIGITAL_IO\digital_io.h **** *
 192:C:/Workspaces/BachelorThesis/imu_test/Dave/Generated/DIGITAL_IO\digital_io.h **** * @brief Function to initialize the port pin as per UI settings.
 193:C:/Workspaces/BachelorThesis/imu_test/Dave/Generated/DIGITAL_IO\digital_io.h **** * @param handler Pointer pointing to APP data structure. Refer @ref DIGITAL_IO_t for details.
 194:C:/Workspaces/BachelorThesis/imu_test/Dave/Generated/DIGITAL_IO\digital_io.h **** * @return DIGITAL_IO_STATUS_t DIGITAL_IO APP status. Refer @ref DIGITAL_IO_STATUS_t structure for d
 195:C:/Workspaces/BachelorThesis/imu_test/Dave/Generated/DIGITAL_IO\digital_io.h **** *
 196:C:/Workspaces/BachelorThesis/imu_test/Dave/Generated/DIGITAL_IO\digital_io.h **** * \par<b>Description:</b><br>
 197:C:/Workspaces/BachelorThesis/imu_test/Dave/Generated/DIGITAL_IO\digital_io.h **** * This function initializes GPIO port registers IOCR,PDISC,OMR,PDR/PHCR to configure pin direction,
 198:C:/Workspaces/BachelorThesis/imu_test/Dave/Generated/DIGITAL_IO\digital_io.h **** * and pad driver strength/hysteresis.
 199:C:/Workspaces/BachelorThesis/imu_test/Dave/Generated/DIGITAL_IO\digital_io.h **** *
 200:C:/Workspaces/BachelorThesis/imu_test/Dave/Generated/DIGITAL_IO\digital_io.h **** * \par<b>Related APIs:</b><BR>
 201:C:/Workspaces/BachelorThesis/imu_test/Dave/Generated/DIGITAL_IO\digital_io.h **** * None
 202:C:/Workspaces/BachelorThesis/imu_test/Dave/Generated/DIGITAL_IO\digital_io.h **** *
 203:C:/Workspaces/BachelorThesis/imu_test/Dave/Generated/DIGITAL_IO\digital_io.h **** * Example Usage:
 204:C:/Workspaces/BachelorThesis/imu_test/Dave/Generated/DIGITAL_IO\digital_io.h **** * @code
 205:C:/Workspaces/BachelorThesis/imu_test/Dave/Generated/DIGITAL_IO\digital_io.h **** * #include "DAVE.h" //Declarations from DAVE Code Generation (includes SFR declaration)
 206:C:/Workspaces/BachelorThesis/imu_test/Dave/Generated/DIGITAL_IO\digital_io.h **** *
 207:C:/Workspaces/BachelorThesis/imu_test/Dave/Generated/DIGITAL_IO\digital_io.h **** * int main(void)
 208:C:/Workspaces/BachelorThesis/imu_test/Dave/Generated/DIGITAL_IO\digital_io.h **** * {
 209:C:/Workspaces/BachelorThesis/imu_test/Dave/Generated/DIGITAL_IO\digital_io.h **** *   DAVE_STATUS_t status;
 210:C:/Workspaces/BachelorThesis/imu_test/Dave/Generated/DIGITAL_IO\digital_io.h **** *   status = DAVE_Init();  //(DAVE_STATUS_t)DIGITAL_IO_Init(&DIGITAL_IO_0) is called within DAVE_In
 211:C:/Workspaces/BachelorThesis/imu_test/Dave/Generated/DIGITAL_IO\digital_io.h **** *   if(status == DAVE_STATUS_SUCCESS)
 212:C:/Workspaces/BachelorThesis/imu_test/Dave/Generated/DIGITAL_IO\digital_io.h **** *   {
 213:C:/Workspaces/BachelorThesis/imu_test/Dave/Generated/DIGITAL_IO\digital_io.h **** *     XMC_DEBUG("DAVE Apps initialization success\n");
 214:C:/Workspaces/BachelorThesis/imu_test/Dave/Generated/DIGITAL_IO\digital_io.h **** *   }
 215:C:/Workspaces/BachelorThesis/imu_test/Dave/Generated/DIGITAL_IO\digital_io.h **** *   else
 216:C:/Workspaces/BachelorThesis/imu_test/Dave/Generated/DIGITAL_IO\digital_io.h **** *   {
 217:C:/Workspaces/BachelorThesis/imu_test/Dave/Generated/DIGITAL_IO\digital_io.h **** *     XMC_DEBUG(("DAVE Apps initialization failed with status %d\n", status));
 218:C:/Workspaces/BachelorThesis/imu_test/Dave/Generated/DIGITAL_IO\digital_io.h **** *     while(1U)
 219:C:/Workspaces/BachelorThesis/imu_test/Dave/Generated/DIGITAL_IO\digital_io.h **** *     {
 220:C:/Workspaces/BachelorThesis/imu_test/Dave/Generated/DIGITAL_IO\digital_io.h **** *     }
 221:C:/Workspaces/BachelorThesis/imu_test/Dave/Generated/DIGITAL_IO\digital_io.h **** *   }
 222:C:/Workspaces/BachelorThesis/imu_test/Dave/Generated/DIGITAL_IO\digital_io.h **** *   //Placeholder for user application code. The while loop below can be replaced with user applica
 223:C:/Workspaces/BachelorThesis/imu_test/Dave/Generated/DIGITAL_IO\digital_io.h **** *   while(1U)
 224:C:/Workspaces/BachelorThesis/imu_test/Dave/Generated/DIGITAL_IO\digital_io.h **** *   {
 225:C:/Workspaces/BachelorThesis/imu_test/Dave/Generated/DIGITAL_IO\digital_io.h **** *   }
 226:C:/Workspaces/BachelorThesis/imu_test/Dave/Generated/DIGITAL_IO\digital_io.h **** *   return 1U;
 227:C:/Workspaces/BachelorThesis/imu_test/Dave/Generated/DIGITAL_IO\digital_io.h **** *  }
 228:C:/Workspaces/BachelorThesis/imu_test/Dave/Generated/DIGITAL_IO\digital_io.h **** *  @endcode
 229:C:/Workspaces/BachelorThesis/imu_test/Dave/Generated/DIGITAL_IO\digital_io.h **** */
 230:C:/Workspaces/BachelorThesis/imu_test/Dave/Generated/DIGITAL_IO\digital_io.h **** 
 231:C:/Workspaces/BachelorThesis/imu_test/Dave/Generated/DIGITAL_IO\digital_io.h **** DIGITAL_IO_STATUS_t DIGITAL_IO_Init(const DIGITAL_IO_t *const handler);
 232:C:/Workspaces/BachelorThesis/imu_test/Dave/Generated/DIGITAL_IO\digital_io.h **** 
 233:C:/Workspaces/BachelorThesis/imu_test/Dave/Generated/DIGITAL_IO\digital_io.h **** /**
 234:C:/Workspaces/BachelorThesis/imu_test/Dave/Generated/DIGITAL_IO\digital_io.h **** *
 235:C:/Workspaces/BachelorThesis/imu_test/Dave/Generated/DIGITAL_IO\digital_io.h **** * @brief Function to set port pin high.
 236:C:/Workspaces/BachelorThesis/imu_test/Dave/Generated/DIGITAL_IO\digital_io.h **** * @param handler Pointer pointing to APP data structure. Refer @ref DIGITAL_IO_t for details.
 237:C:/Workspaces/BachelorThesis/imu_test/Dave/Generated/DIGITAL_IO\digital_io.h **** * @return None
 238:C:/Workspaces/BachelorThesis/imu_test/Dave/Generated/DIGITAL_IO\digital_io.h **** *
 239:C:/Workspaces/BachelorThesis/imu_test/Dave/Generated/DIGITAL_IO\digital_io.h **** * \par<b>Description:</b><br>
 240:C:/Workspaces/BachelorThesis/imu_test/Dave/Generated/DIGITAL_IO\digital_io.h **** * This function configures port output modification register Pn_OMR, to make port pin to high level
 241:C:/Workspaces/BachelorThesis/imu_test/Dave/Generated/DIGITAL_IO\digital_io.h **** *
 242:C:/Workspaces/BachelorThesis/imu_test/Dave/Generated/DIGITAL_IO\digital_io.h **** * \par<b>Related APIs:</b><BR>
 243:C:/Workspaces/BachelorThesis/imu_test/Dave/Generated/DIGITAL_IO\digital_io.h **** *  DIGITAL_IO_SetOutputLow()
 244:C:/Workspaces/BachelorThesis/imu_test/Dave/Generated/DIGITAL_IO\digital_io.h **** *
 245:C:/Workspaces/BachelorThesis/imu_test/Dave/Generated/DIGITAL_IO\digital_io.h **** * Example Usage:
 246:C:/Workspaces/BachelorThesis/imu_test/Dave/Generated/DIGITAL_IO\digital_io.h **** * @code
 247:C:/Workspaces/BachelorThesis/imu_test/Dave/Generated/DIGITAL_IO\digital_io.h **** * #include "DAVE.h" //Declarations from DAVE Code Generation (includes SFR declaration)
 248:C:/Workspaces/BachelorThesis/imu_test/Dave/Generated/DIGITAL_IO\digital_io.h **** *
 249:C:/Workspaces/BachelorThesis/imu_test/Dave/Generated/DIGITAL_IO\digital_io.h **** * int main(void)
 250:C:/Workspaces/BachelorThesis/imu_test/Dave/Generated/DIGITAL_IO\digital_io.h **** * {
 251:C:/Workspaces/BachelorThesis/imu_test/Dave/Generated/DIGITAL_IO\digital_io.h **** *   DAVE_STATUS_t status;
 252:C:/Workspaces/BachelorThesis/imu_test/Dave/Generated/DIGITAL_IO\digital_io.h **** *   status = DAVE_Init();  //(DAVE_STATUS_t)DIGITAL_IO_Init(&DIGITAL_IO_0) is called within DAVE_In
 253:C:/Workspaces/BachelorThesis/imu_test/Dave/Generated/DIGITAL_IO\digital_io.h **** *   if(status == DAVE_STATUS_SUCCESS)
 254:C:/Workspaces/BachelorThesis/imu_test/Dave/Generated/DIGITAL_IO\digital_io.h **** *   {
 255:C:/Workspaces/BachelorThesis/imu_test/Dave/Generated/DIGITAL_IO\digital_io.h **** *     XMC_DEBUG("DAVE Apps initialization success\n");
 256:C:/Workspaces/BachelorThesis/imu_test/Dave/Generated/DIGITAL_IO\digital_io.h **** *   }
 257:C:/Workspaces/BachelorThesis/imu_test/Dave/Generated/DIGITAL_IO\digital_io.h **** *   else
 258:C:/Workspaces/BachelorThesis/imu_test/Dave/Generated/DIGITAL_IO\digital_io.h **** *   {
 259:C:/Workspaces/BachelorThesis/imu_test/Dave/Generated/DIGITAL_IO\digital_io.h **** *     XMC_DEBUG(("DAVE Apps initialization failed with status %d\n", status));
 260:C:/Workspaces/BachelorThesis/imu_test/Dave/Generated/DIGITAL_IO\digital_io.h **** *     while(1U)
 261:C:/Workspaces/BachelorThesis/imu_test/Dave/Generated/DIGITAL_IO\digital_io.h **** *     {
 262:C:/Workspaces/BachelorThesis/imu_test/Dave/Generated/DIGITAL_IO\digital_io.h **** *     }
 263:C:/Workspaces/BachelorThesis/imu_test/Dave/Generated/DIGITAL_IO\digital_io.h **** *   }
 264:C:/Workspaces/BachelorThesis/imu_test/Dave/Generated/DIGITAL_IO\digital_io.h **** *   //Placeholder for user application code. The while loop below can be replaced with user applica
 265:C:/Workspaces/BachelorThesis/imu_test/Dave/Generated/DIGITAL_IO\digital_io.h **** *   DIGITAL_IO_SetOutputHigh(&DIGITAL_IO_0);
 266:C:/Workspaces/BachelorThesis/imu_test/Dave/Generated/DIGITAL_IO\digital_io.h **** *   while(1U)
 267:C:/Workspaces/BachelorThesis/imu_test/Dave/Generated/DIGITAL_IO\digital_io.h **** *   {
 268:C:/Workspaces/BachelorThesis/imu_test/Dave/Generated/DIGITAL_IO\digital_io.h **** *     // Add application code here
 269:C:/Workspaces/BachelorThesis/imu_test/Dave/Generated/DIGITAL_IO\digital_io.h **** *   }
 270:C:/Workspaces/BachelorThesis/imu_test/Dave/Generated/DIGITAL_IO\digital_io.h **** *
 271:C:/Workspaces/BachelorThesis/imu_test/Dave/Generated/DIGITAL_IO\digital_io.h **** *   return (1);
 272:C:/Workspaces/BachelorThesis/imu_test/Dave/Generated/DIGITAL_IO\digital_io.h **** * }
 273:C:/Workspaces/BachelorThesis/imu_test/Dave/Generated/DIGITAL_IO\digital_io.h **** *  @endcode
 274:C:/Workspaces/BachelorThesis/imu_test/Dave/Generated/DIGITAL_IO\digital_io.h **** */
 275:C:/Workspaces/BachelorThesis/imu_test/Dave/Generated/DIGITAL_IO\digital_io.h **** 
 276:C:/Workspaces/BachelorThesis/imu_test/Dave/Generated/DIGITAL_IO\digital_io.h **** __STATIC_INLINE void DIGITAL_IO_SetOutputHigh(const DIGITAL_IO_t *const handler)
 277:C:/Workspaces/BachelorThesis/imu_test/Dave/Generated/DIGITAL_IO\digital_io.h **** {
 169              	 .loc 2 277 0
 170              	 .cfi_startproc
 171              	 
 172              	 
 173 0000 80B5     	 push {r7,lr}
 174              	.LCFI18:
 175              	 .cfi_def_cfa_offset 8
 176              	 .cfi_offset 7,-8
 177              	 .cfi_offset 14,-4
 178 0002 82B0     	 sub sp,sp,#8
 179              	.LCFI19:
 180              	 .cfi_def_cfa_offset 16
 181 0004 00AF     	 add r7,sp,#0
 182              	.LCFI20:
 183              	 .cfi_def_cfa_register 7
 184 0006 7860     	 str r0,[r7,#4]
 278:C:/Workspaces/BachelorThesis/imu_test/Dave/Generated/DIGITAL_IO\digital_io.h ****   XMC_ASSERT("DIGITAL_IO_SetOutputHigh: handler null pointer", handler != NULL);
 279:C:/Workspaces/BachelorThesis/imu_test/Dave/Generated/DIGITAL_IO\digital_io.h ****   XMC_GPIO_SetOutputHigh(handler->gpio_port, handler->gpio_pin);
 185              	 .loc 2 279 0
 186 0008 7B68     	 ldr r3,[r7,#4]
 187 000a 1A68     	 ldr r2,[r3]
 188 000c 7B68     	 ldr r3,[r7,#4]
 189 000e 1B7C     	 ldrb r3,[r3,#16]
 190 0010 1046     	 mov r0,r2
 191 0012 1946     	 mov r1,r3
 192 0014 FFF7FEFF 	 bl XMC_GPIO_SetOutputHigh
 280:C:/Workspaces/BachelorThesis/imu_test/Dave/Generated/DIGITAL_IO\digital_io.h **** }
 193              	 .loc 2 280 0
 194 0018 0837     	 adds r7,r7,#8
 195              	.LCFI21:
 196              	 .cfi_def_cfa_offset 8
 197 001a BD46     	 mov sp,r7
 198              	.LCFI22:
 199              	 .cfi_def_cfa_register 13
 200              	 
 201 001c 80BD     	 pop {r7,pc}
 202              	 .cfi_endproc
 203              	.LFE234:
 205 001e 00BF     	 .section .text.DIGITAL_IO_SetOutputLow,"ax",%progbits
 206              	 .align 2
 207              	 .thumb
 208              	 .thumb_func
 210              	DIGITAL_IO_SetOutputLow:
 211              	.LFB235:
 281:C:/Workspaces/BachelorThesis/imu_test/Dave/Generated/DIGITAL_IO\digital_io.h **** 
 282:C:/Workspaces/BachelorThesis/imu_test/Dave/Generated/DIGITAL_IO\digital_io.h **** /**
 283:C:/Workspaces/BachelorThesis/imu_test/Dave/Generated/DIGITAL_IO\digital_io.h **** * @brief Function to reset port pin.
 284:C:/Workspaces/BachelorThesis/imu_test/Dave/Generated/DIGITAL_IO\digital_io.h **** * @param handler Pointer pointing to APP data structure. Refer @ref DIGITAL_IO_t for details.
 285:C:/Workspaces/BachelorThesis/imu_test/Dave/Generated/DIGITAL_IO\digital_io.h **** * @return None
 286:C:/Workspaces/BachelorThesis/imu_test/Dave/Generated/DIGITAL_IO\digital_io.h **** *
 287:C:/Workspaces/BachelorThesis/imu_test/Dave/Generated/DIGITAL_IO\digital_io.h **** * \par<b>Description:</b><br>
 288:C:/Workspaces/BachelorThesis/imu_test/Dave/Generated/DIGITAL_IO\digital_io.h **** * This function configures port output modification register Pn_OMR, to make port pin to low level.
 289:C:/Workspaces/BachelorThesis/imu_test/Dave/Generated/DIGITAL_IO\digital_io.h **** *
 290:C:/Workspaces/BachelorThesis/imu_test/Dave/Generated/DIGITAL_IO\digital_io.h **** * \par<b>Related APIs:</b><BR>
 291:C:/Workspaces/BachelorThesis/imu_test/Dave/Generated/DIGITAL_IO\digital_io.h **** * DIGITAL_IO_SetOutputHigh()
 292:C:/Workspaces/BachelorThesis/imu_test/Dave/Generated/DIGITAL_IO\digital_io.h **** *
 293:C:/Workspaces/BachelorThesis/imu_test/Dave/Generated/DIGITAL_IO\digital_io.h **** * Example Usage:
 294:C:/Workspaces/BachelorThesis/imu_test/Dave/Generated/DIGITAL_IO\digital_io.h **** * @code
 295:C:/Workspaces/BachelorThesis/imu_test/Dave/Generated/DIGITAL_IO\digital_io.h **** *  #include "DAVE.h" //Declarations from DAVE Code Generation (includes SFR declaration)
 296:C:/Workspaces/BachelorThesis/imu_test/Dave/Generated/DIGITAL_IO\digital_io.h **** *
 297:C:/Workspaces/BachelorThesis/imu_test/Dave/Generated/DIGITAL_IO\digital_io.h **** *  int main(void)
 298:C:/Workspaces/BachelorThesis/imu_test/Dave/Generated/DIGITAL_IO\digital_io.h **** *  {
 299:C:/Workspaces/BachelorThesis/imu_test/Dave/Generated/DIGITAL_IO\digital_io.h **** *    DAVE_STATUS_t status;
 300:C:/Workspaces/BachelorThesis/imu_test/Dave/Generated/DIGITAL_IO\digital_io.h **** *    status = DAVE_Init();  //(DAVE_STATUS_t)DIGITAL_IO_Init(&DIGITAL_IO_0) is called within DAVE_I
 301:C:/Workspaces/BachelorThesis/imu_test/Dave/Generated/DIGITAL_IO\digital_io.h **** *    if(status == DAVE_STATUS_SUCCESS)
 302:C:/Workspaces/BachelorThesis/imu_test/Dave/Generated/DIGITAL_IO\digital_io.h **** *    {
 303:C:/Workspaces/BachelorThesis/imu_test/Dave/Generated/DIGITAL_IO\digital_io.h **** *      XMC_DEBUG("DAVE Apps initialization success\n");
 304:C:/Workspaces/BachelorThesis/imu_test/Dave/Generated/DIGITAL_IO\digital_io.h **** *    }
 305:C:/Workspaces/BachelorThesis/imu_test/Dave/Generated/DIGITAL_IO\digital_io.h **** *    else
 306:C:/Workspaces/BachelorThesis/imu_test/Dave/Generated/DIGITAL_IO\digital_io.h **** *    {
 307:C:/Workspaces/BachelorThesis/imu_test/Dave/Generated/DIGITAL_IO\digital_io.h **** *      XMC_DEBUG(("DAVE Apps initialization failed with status %d\n", status));
 308:C:/Workspaces/BachelorThesis/imu_test/Dave/Generated/DIGITAL_IO\digital_io.h **** *      while(1U)
 309:C:/Workspaces/BachelorThesis/imu_test/Dave/Generated/DIGITAL_IO\digital_io.h **** *      {
 310:C:/Workspaces/BachelorThesis/imu_test/Dave/Generated/DIGITAL_IO\digital_io.h **** *      }
 311:C:/Workspaces/BachelorThesis/imu_test/Dave/Generated/DIGITAL_IO\digital_io.h **** *    }
 312:C:/Workspaces/BachelorThesis/imu_test/Dave/Generated/DIGITAL_IO\digital_io.h **** *    //Placeholder for user application code. The while loop below can be replaced with user applic
 313:C:/Workspaces/BachelorThesis/imu_test/Dave/Generated/DIGITAL_IO\digital_io.h **** *    DIGITAL_IO_SetOutputLow(&DIGITAL_IO_0);
 314:C:/Workspaces/BachelorThesis/imu_test/Dave/Generated/DIGITAL_IO\digital_io.h **** *    while(1U)
 315:C:/Workspaces/BachelorThesis/imu_test/Dave/Generated/DIGITAL_IO\digital_io.h **** *    {
 316:C:/Workspaces/BachelorThesis/imu_test/Dave/Generated/DIGITAL_IO\digital_io.h **** *      // Add application code here
 317:C:/Workspaces/BachelorThesis/imu_test/Dave/Generated/DIGITAL_IO\digital_io.h **** *    }
 318:C:/Workspaces/BachelorThesis/imu_test/Dave/Generated/DIGITAL_IO\digital_io.h **** *
 319:C:/Workspaces/BachelorThesis/imu_test/Dave/Generated/DIGITAL_IO\digital_io.h **** *   return (1);
 320:C:/Workspaces/BachelorThesis/imu_test/Dave/Generated/DIGITAL_IO\digital_io.h **** * }
 321:C:/Workspaces/BachelorThesis/imu_test/Dave/Generated/DIGITAL_IO\digital_io.h **** *  @endcode
 322:C:/Workspaces/BachelorThesis/imu_test/Dave/Generated/DIGITAL_IO\digital_io.h **** */
 323:C:/Workspaces/BachelorThesis/imu_test/Dave/Generated/DIGITAL_IO\digital_io.h **** 
 324:C:/Workspaces/BachelorThesis/imu_test/Dave/Generated/DIGITAL_IO\digital_io.h **** __STATIC_INLINE void DIGITAL_IO_SetOutputLow(const DIGITAL_IO_t *const handler)
 325:C:/Workspaces/BachelorThesis/imu_test/Dave/Generated/DIGITAL_IO\digital_io.h **** {
 212              	 .loc 2 325 0
 213              	 .cfi_startproc
 214              	 
 215              	 
 216 0000 80B5     	 push {r7,lr}
 217              	.LCFI23:
 218              	 .cfi_def_cfa_offset 8
 219              	 .cfi_offset 7,-8
 220              	 .cfi_offset 14,-4
 221 0002 82B0     	 sub sp,sp,#8
 222              	.LCFI24:
 223              	 .cfi_def_cfa_offset 16
 224 0004 00AF     	 add r7,sp,#0
 225              	.LCFI25:
 226              	 .cfi_def_cfa_register 7
 227 0006 7860     	 str r0,[r7,#4]
 326:C:/Workspaces/BachelorThesis/imu_test/Dave/Generated/DIGITAL_IO\digital_io.h ****   XMC_ASSERT("DIGITAL_IO_SetOutputLow: handler null pointer", handler != NULL);
 327:C:/Workspaces/BachelorThesis/imu_test/Dave/Generated/DIGITAL_IO\digital_io.h ****   XMC_GPIO_SetOutputLow(handler->gpio_port,handler->gpio_pin);
 228              	 .loc 2 327 0
 229 0008 7B68     	 ldr r3,[r7,#4]
 230 000a 1A68     	 ldr r2,[r3]
 231 000c 7B68     	 ldr r3,[r7,#4]
 232 000e 1B7C     	 ldrb r3,[r3,#16]
 233 0010 1046     	 mov r0,r2
 234 0012 1946     	 mov r1,r3
 235 0014 FFF7FEFF 	 bl XMC_GPIO_SetOutputLow
 328:C:/Workspaces/BachelorThesis/imu_test/Dave/Generated/DIGITAL_IO\digital_io.h **** }
 236              	 .loc 2 328 0
 237 0018 0837     	 adds r7,r7,#8
 238              	.LCFI26:
 239              	 .cfi_def_cfa_offset 8
 240 001a BD46     	 mov sp,r7
 241              	.LCFI27:
 242              	 .cfi_def_cfa_register 13
 243              	 
 244 001c 80BD     	 pop {r7,pc}
 245              	 .cfi_endproc
 246              	.LFE235:
 248 001e 00BF     	 .section .text.DIGITAL_IO_ToggleOutput,"ax",%progbits
 249              	 .align 2
 250              	 .thumb
 251              	 .thumb_func
 253              	DIGITAL_IO_ToggleOutput:
 254              	.LFB236:
 329:C:/Workspaces/BachelorThesis/imu_test/Dave/Generated/DIGITAL_IO\digital_io.h **** 
 330:C:/Workspaces/BachelorThesis/imu_test/Dave/Generated/DIGITAL_IO\digital_io.h **** /**
 331:C:/Workspaces/BachelorThesis/imu_test/Dave/Generated/DIGITAL_IO\digital_io.h **** * @brief Function to Toggle port pin.
 332:C:/Workspaces/BachelorThesis/imu_test/Dave/Generated/DIGITAL_IO\digital_io.h **** * @param handler Pointer pointing to APP data structure. Refer @ref DIGITAL_IO_t for details.
 333:C:/Workspaces/BachelorThesis/imu_test/Dave/Generated/DIGITAL_IO\digital_io.h **** * @return None
 334:C:/Workspaces/BachelorThesis/imu_test/Dave/Generated/DIGITAL_IO\digital_io.h **** *
 335:C:/Workspaces/BachelorThesis/imu_test/Dave/Generated/DIGITAL_IO\digital_io.h **** * \par<b>Description:</b><br>
 336:C:/Workspaces/BachelorThesis/imu_test/Dave/Generated/DIGITAL_IO\digital_io.h **** * This function configures port output modification register Pn_OMR, to toggle port pin.
 337:C:/Workspaces/BachelorThesis/imu_test/Dave/Generated/DIGITAL_IO\digital_io.h **** *
 338:C:/Workspaces/BachelorThesis/imu_test/Dave/Generated/DIGITAL_IO\digital_io.h **** * \par<b>Related APIs:</b><BR>
 339:C:/Workspaces/BachelorThesis/imu_test/Dave/Generated/DIGITAL_IO\digital_io.h **** * DIGITAL_IO_SetOutputLow(), DIGITAL_IO_SetOutputHigh()
 340:C:/Workspaces/BachelorThesis/imu_test/Dave/Generated/DIGITAL_IO\digital_io.h **** *
 341:C:/Workspaces/BachelorThesis/imu_test/Dave/Generated/DIGITAL_IO\digital_io.h **** * Example Usage:
 342:C:/Workspaces/BachelorThesis/imu_test/Dave/Generated/DIGITAL_IO\digital_io.h **** *
 343:C:/Workspaces/BachelorThesis/imu_test/Dave/Generated/DIGITAL_IO\digital_io.h **** * @code
 344:C:/Workspaces/BachelorThesis/imu_test/Dave/Generated/DIGITAL_IO\digital_io.h **** * #include "DAVE.h" //Declarations from DAVE Code Generation (includes SFR declaration)
 345:C:/Workspaces/BachelorThesis/imu_test/Dave/Generated/DIGITAL_IO\digital_io.h **** *
 346:C:/Workspaces/BachelorThesis/imu_test/Dave/Generated/DIGITAL_IO\digital_io.h **** * int main(void)
 347:C:/Workspaces/BachelorThesis/imu_test/Dave/Generated/DIGITAL_IO\digital_io.h **** * {
 348:C:/Workspaces/BachelorThesis/imu_test/Dave/Generated/DIGITAL_IO\digital_io.h **** *   DAVE_STATUS_t status;
 349:C:/Workspaces/BachelorThesis/imu_test/Dave/Generated/DIGITAL_IO\digital_io.h **** *   uint32_t delay_count;;
 350:C:/Workspaces/BachelorThesis/imu_test/Dave/Generated/DIGITAL_IO\digital_io.h **** *   status = DAVE_Init();  //(DAVE_STATUS_t)DIGITAL_IO_Init(&DIGITAL_IO_0) is called within DAVE_In
 351:C:/Workspaces/BachelorThesis/imu_test/Dave/Generated/DIGITAL_IO\digital_io.h **** *   if(status == DAVE_STATUS_SUCCESS)
 352:C:/Workspaces/BachelorThesis/imu_test/Dave/Generated/DIGITAL_IO\digital_io.h **** *   {
 353:C:/Workspaces/BachelorThesis/imu_test/Dave/Generated/DIGITAL_IO\digital_io.h **** *     XMC_DEBUG("DAVE Apps initialization success\n");
 354:C:/Workspaces/BachelorThesis/imu_test/Dave/Generated/DIGITAL_IO\digital_io.h **** *   }
 355:C:/Workspaces/BachelorThesis/imu_test/Dave/Generated/DIGITAL_IO\digital_io.h **** *   else
 356:C:/Workspaces/BachelorThesis/imu_test/Dave/Generated/DIGITAL_IO\digital_io.h **** *   {
 357:C:/Workspaces/BachelorThesis/imu_test/Dave/Generated/DIGITAL_IO\digital_io.h **** *      XMC_DEBUG(("DAVE Apps initialization failed with status %d\n", status));
 358:C:/Workspaces/BachelorThesis/imu_test/Dave/Generated/DIGITAL_IO\digital_io.h **** *      while(1U)
 359:C:/Workspaces/BachelorThesis/imu_test/Dave/Generated/DIGITAL_IO\digital_io.h **** *      {
 360:C:/Workspaces/BachelorThesis/imu_test/Dave/Generated/DIGITAL_IO\digital_io.h **** *      }
 361:C:/Workspaces/BachelorThesis/imu_test/Dave/Generated/DIGITAL_IO\digital_io.h **** *   }
 362:C:/Workspaces/BachelorThesis/imu_test/Dave/Generated/DIGITAL_IO\digital_io.h **** *   //Placeholder for user application code. The while loop below can be replaced with user applica
 363:C:/Workspaces/BachelorThesis/imu_test/Dave/Generated/DIGITAL_IO\digital_io.h **** *   while(1U)
 364:C:/Workspaces/BachelorThesis/imu_test/Dave/Generated/DIGITAL_IO\digital_io.h **** *   {
 365:C:/Workspaces/BachelorThesis/imu_test/Dave/Generated/DIGITAL_IO\digital_io.h **** *      DIGITAL_IO_ToggleOutput(&DIGITAL_IO_0); //toggles : 1 -> 0 (if initial output level is logic
 366:C:/Workspaces/BachelorThesis/imu_test/Dave/Generated/DIGITAL_IO\digital_io.h **** *      //Add application code here
 367:C:/Workspaces/BachelorThesis/imu_test/Dave/Generated/DIGITAL_IO\digital_io.h **** *      for(delay_count = 0;delay_count<0xfffff;delay_count++);
 368:C:/Workspaces/BachelorThesis/imu_test/Dave/Generated/DIGITAL_IO\digital_io.h **** *      DIGITAL_IO_ToggleOutput(&DIGITAL_IO_0); //toggles : 0 -> 1
 369:C:/Workspaces/BachelorThesis/imu_test/Dave/Generated/DIGITAL_IO\digital_io.h **** *      //Add application code here
 370:C:/Workspaces/BachelorThesis/imu_test/Dave/Generated/DIGITAL_IO\digital_io.h **** *      for(delay_count = 0;delay_count<0xfffff;delay_count++);
 371:C:/Workspaces/BachelorThesis/imu_test/Dave/Generated/DIGITAL_IO\digital_io.h **** *   }
 372:C:/Workspaces/BachelorThesis/imu_test/Dave/Generated/DIGITAL_IO\digital_io.h **** *   return (1);
 373:C:/Workspaces/BachelorThesis/imu_test/Dave/Generated/DIGITAL_IO\digital_io.h **** * }
 374:C:/Workspaces/BachelorThesis/imu_test/Dave/Generated/DIGITAL_IO\digital_io.h **** *  @endcode
 375:C:/Workspaces/BachelorThesis/imu_test/Dave/Generated/DIGITAL_IO\digital_io.h **** */
 376:C:/Workspaces/BachelorThesis/imu_test/Dave/Generated/DIGITAL_IO\digital_io.h **** 
 377:C:/Workspaces/BachelorThesis/imu_test/Dave/Generated/DIGITAL_IO\digital_io.h **** __STATIC_INLINE void DIGITAL_IO_ToggleOutput(const DIGITAL_IO_t *const handler)
 378:C:/Workspaces/BachelorThesis/imu_test/Dave/Generated/DIGITAL_IO\digital_io.h **** {
 255              	 .loc 2 378 0
 256              	 .cfi_startproc
 257              	 
 258              	 
 259 0000 80B5     	 push {r7,lr}
 260              	.LCFI28:
 261              	 .cfi_def_cfa_offset 8
 262              	 .cfi_offset 7,-8
 263              	 .cfi_offset 14,-4
 264 0002 82B0     	 sub sp,sp,#8
 265              	.LCFI29:
 266              	 .cfi_def_cfa_offset 16
 267 0004 00AF     	 add r7,sp,#0
 268              	.LCFI30:
 269              	 .cfi_def_cfa_register 7
 270 0006 7860     	 str r0,[r7,#4]
 379:C:/Workspaces/BachelorThesis/imu_test/Dave/Generated/DIGITAL_IO\digital_io.h ****   XMC_ASSERT("DIGITAL_IO_ToggleOutput: handler null pointer", handler != NULL);
 380:C:/Workspaces/BachelorThesis/imu_test/Dave/Generated/DIGITAL_IO\digital_io.h ****   XMC_GPIO_ToggleOutput(handler->gpio_port, handler->gpio_pin);
 271              	 .loc 2 380 0
 272 0008 7B68     	 ldr r3,[r7,#4]
 273 000a 1A68     	 ldr r2,[r3]
 274 000c 7B68     	 ldr r3,[r7,#4]
 275 000e 1B7C     	 ldrb r3,[r3,#16]
 276 0010 1046     	 mov r0,r2
 277 0012 1946     	 mov r1,r3
 278 0014 FFF7FEFF 	 bl XMC_GPIO_ToggleOutput
 381:C:/Workspaces/BachelorThesis/imu_test/Dave/Generated/DIGITAL_IO\digital_io.h **** }
 279              	 .loc 2 381 0
 280 0018 0837     	 adds r7,r7,#8
 281              	.LCFI31:
 282              	 .cfi_def_cfa_offset 8
 283 001a BD46     	 mov sp,r7
 284              	.LCFI32:
 285              	 .cfi_def_cfa_register 13
 286              	 
 287 001c 80BD     	 pop {r7,pc}
 288              	 .cfi_endproc
 289              	.LFE236:
 291 001e 00BF     	 .section .text.XMC_SPI_CH_GetStatusFlag,"ax",%progbits
 292              	 .align 2
 293              	 .thumb
 294              	 .thumb_func
 296              	XMC_SPI_CH_GetStatusFlag:
 297              	.LFB311:
 298              	 .file 3 "C:/Workspaces/BachelorThesis/imu_test/Libraries/XMCLib/inc/xmc_spi.h"
   1:C:/Workspaces/BachelorThesis/imu_test/Libraries/XMCLib/inc\xmc_spi.h **** /**
   2:C:/Workspaces/BachelorThesis/imu_test/Libraries/XMCLib/inc\xmc_spi.h ****  * @file xmc_spi.h
   3:C:/Workspaces/BachelorThesis/imu_test/Libraries/XMCLib/inc\xmc_spi.h ****  * @date 2020-12-05
   4:C:/Workspaces/BachelorThesis/imu_test/Libraries/XMCLib/inc\xmc_spi.h ****  *
   5:C:/Workspaces/BachelorThesis/imu_test/Libraries/XMCLib/inc\xmc_spi.h ****  * @cond
   6:C:/Workspaces/BachelorThesis/imu_test/Libraries/XMCLib/inc\xmc_spi.h ****  *****************************************************************************
   7:C:/Workspaces/BachelorThesis/imu_test/Libraries/XMCLib/inc\xmc_spi.h ****  * XMClib v2.2.0 - XMC Peripheral Driver Library
   8:C:/Workspaces/BachelorThesis/imu_test/Libraries/XMCLib/inc\xmc_spi.h ****  *
   9:C:/Workspaces/BachelorThesis/imu_test/Libraries/XMCLib/inc\xmc_spi.h ****  * Copyright (c) 2015-2020, Infineon Technologies AG
  10:C:/Workspaces/BachelorThesis/imu_test/Libraries/XMCLib/inc\xmc_spi.h ****  * All rights reserved.
  11:C:/Workspaces/BachelorThesis/imu_test/Libraries/XMCLib/inc\xmc_spi.h ****  *
  12:C:/Workspaces/BachelorThesis/imu_test/Libraries/XMCLib/inc\xmc_spi.h ****  * Boost Software License - Version 1.0 - August 17th, 2003
  13:C:/Workspaces/BachelorThesis/imu_test/Libraries/XMCLib/inc\xmc_spi.h ****  *
  14:C:/Workspaces/BachelorThesis/imu_test/Libraries/XMCLib/inc\xmc_spi.h ****  * Permission is hereby granted, free of charge, to any person or organization
  15:C:/Workspaces/BachelorThesis/imu_test/Libraries/XMCLib/inc\xmc_spi.h ****  * obtaining a copy of the software and accompanying documentation covered by
  16:C:/Workspaces/BachelorThesis/imu_test/Libraries/XMCLib/inc\xmc_spi.h ****  * this license (the "Software") to use, reproduce, display, distribute,
  17:C:/Workspaces/BachelorThesis/imu_test/Libraries/XMCLib/inc\xmc_spi.h ****  * execute, and transmit the Software, and to prepare derivative works of the
  18:C:/Workspaces/BachelorThesis/imu_test/Libraries/XMCLib/inc\xmc_spi.h ****  * Software, and to permit third-parties to whom the Software is furnished to
  19:C:/Workspaces/BachelorThesis/imu_test/Libraries/XMCLib/inc\xmc_spi.h ****  * do so, all subject to the following:
  20:C:/Workspaces/BachelorThesis/imu_test/Libraries/XMCLib/inc\xmc_spi.h ****  *
  21:C:/Workspaces/BachelorThesis/imu_test/Libraries/XMCLib/inc\xmc_spi.h ****  * The copyright notices in the Software and this entire statement, including
  22:C:/Workspaces/BachelorThesis/imu_test/Libraries/XMCLib/inc\xmc_spi.h ****  * the above license grant, this restriction and the following disclaimer,
  23:C:/Workspaces/BachelorThesis/imu_test/Libraries/XMCLib/inc\xmc_spi.h ****  * must be included in all copies of the Software, in whole or in part, and
  24:C:/Workspaces/BachelorThesis/imu_test/Libraries/XMCLib/inc\xmc_spi.h ****  * all derivative works of the Software, unless such copies or derivative
  25:C:/Workspaces/BachelorThesis/imu_test/Libraries/XMCLib/inc\xmc_spi.h ****  * works are solely in the form of machine-executable object code generated by
  26:C:/Workspaces/BachelorThesis/imu_test/Libraries/XMCLib/inc\xmc_spi.h ****  * a source language processor.
  27:C:/Workspaces/BachelorThesis/imu_test/Libraries/XMCLib/inc\xmc_spi.h ****  *
  28:C:/Workspaces/BachelorThesis/imu_test/Libraries/XMCLib/inc\xmc_spi.h ****  * THE SOFTWARE IS PROVIDED "AS IS", WITHOUT WARRANTY OF ANY KIND, EXPRESS OR
  29:C:/Workspaces/BachelorThesis/imu_test/Libraries/XMCLib/inc\xmc_spi.h ****  * IMPLIED, INCLUDING BUT NOT LIMITED TO THE WARRANTIES OF MERCHANTABILITY,
  30:C:/Workspaces/BachelorThesis/imu_test/Libraries/XMCLib/inc\xmc_spi.h ****  * FITNESS FOR A PARTICULAR PURPOSE, TITLE AND NON-INFRINGEMENT. IN NO EVENT
  31:C:/Workspaces/BachelorThesis/imu_test/Libraries/XMCLib/inc\xmc_spi.h ****  * SHALL THE COPYRIGHT HOLDERS OR ANYONE DISTRIBUTING THE SOFTWARE BE LIABLE
  32:C:/Workspaces/BachelorThesis/imu_test/Libraries/XMCLib/inc\xmc_spi.h ****  * FOR ANY DAMAGES OR OTHER LIABILITY, WHETHER IN CONTRACT, TORT OR OTHERWISE,
  33:C:/Workspaces/BachelorThesis/imu_test/Libraries/XMCLib/inc\xmc_spi.h ****  * ARISING FROM, OUT OF OR IN CONNECTION WITH THE SOFTWARE OR THE USE OR OTHER
  34:C:/Workspaces/BachelorThesis/imu_test/Libraries/XMCLib/inc\xmc_spi.h ****  * DEALINGS IN THE SOFTWARE.
  35:C:/Workspaces/BachelorThesis/imu_test/Libraries/XMCLib/inc\xmc_spi.h ****  *
  36:C:/Workspaces/BachelorThesis/imu_test/Libraries/XMCLib/inc\xmc_spi.h ****  * To improve the quality of the software, users are encouraged to share
  37:C:/Workspaces/BachelorThesis/imu_test/Libraries/XMCLib/inc\xmc_spi.h ****  * modifications, enhancements or bug fixes with Infineon Technologies AG
  38:C:/Workspaces/BachelorThesis/imu_test/Libraries/XMCLib/inc\xmc_spi.h ****  * at XMCSupport@infineon.com.
  39:C:/Workspaces/BachelorThesis/imu_test/Libraries/XMCLib/inc\xmc_spi.h ****  *****************************************************************************
  40:C:/Workspaces/BachelorThesis/imu_test/Libraries/XMCLib/inc\xmc_spi.h ****  *
  41:C:/Workspaces/BachelorThesis/imu_test/Libraries/XMCLib/inc\xmc_spi.h ****  * Change History
  42:C:/Workspaces/BachelorThesis/imu_test/Libraries/XMCLib/inc\xmc_spi.h ****  * --------------
  43:C:/Workspaces/BachelorThesis/imu_test/Libraries/XMCLib/inc\xmc_spi.h ****  *
  44:C:/Workspaces/BachelorThesis/imu_test/Libraries/XMCLib/inc\xmc_spi.h ****  * 2015-02-20:
  45:C:/Workspaces/BachelorThesis/imu_test/Libraries/XMCLib/inc\xmc_spi.h ****  *     - Initial
  46:C:/Workspaces/BachelorThesis/imu_test/Libraries/XMCLib/inc\xmc_spi.h ****  *
  47:C:/Workspaces/BachelorThesis/imu_test/Libraries/XMCLib/inc\xmc_spi.h ****  * 2015-05-20:
  48:C:/Workspaces/BachelorThesis/imu_test/Libraries/XMCLib/inc\xmc_spi.h ****  *     - Documentation improved <br>
  49:C:/Workspaces/BachelorThesis/imu_test/Libraries/XMCLib/inc\xmc_spi.h ****  *     - Added XMC_SPI_CH_SetSlaveSelectDelay(), XMC_SPI_CH_TriggerServiceRequest() and
  50:C:/Workspaces/BachelorThesis/imu_test/Libraries/XMCLib/inc\xmc_spi.h ****  *       XMC_SPI_CH_SelectInterruptNodePointer() <br>
  51:C:/Workspaces/BachelorThesis/imu_test/Libraries/XMCLib/inc\xmc_spi.h ****  *     - Added XMC_SPI_CH_SetInterwordDelaySCLK() <br>
  52:C:/Workspaces/BachelorThesis/imu_test/Libraries/XMCLib/inc\xmc_spi.h ****  *
  53:C:/Workspaces/BachelorThesis/imu_test/Libraries/XMCLib/inc\xmc_spi.h ****  * 2015-06-20:
  54:C:/Workspaces/BachelorThesis/imu_test/Libraries/XMCLib/inc\xmc_spi.h ****  *     - Removed version macros and declaration of GetDriverVersion API <br>
  55:C:/Workspaces/BachelorThesis/imu_test/Libraries/XMCLib/inc\xmc_spi.h ****  *
  56:C:/Workspaces/BachelorThesis/imu_test/Libraries/XMCLib/inc\xmc_spi.h ****  * 2015-08-24:
  57:C:/Workspaces/BachelorThesis/imu_test/Libraries/XMCLib/inc\xmc_spi.h ****  *     - Added APIs for enabling/disabling delay compensation XMC_SPI_CH_DisableDelayCompensation()
  58:C:/Workspaces/BachelorThesis/imu_test/Libraries/XMCLib/inc\xmc_spi.h ****  *       XMC_SPI_CH_EnableDelayCompensation() <br>
  59:C:/Workspaces/BachelorThesis/imu_test/Libraries/XMCLib/inc\xmc_spi.h ****  *
  60:C:/Workspaces/BachelorThesis/imu_test/Libraries/XMCLib/inc\xmc_spi.h ****  * 2015-08-27:
  61:C:/Workspaces/BachelorThesis/imu_test/Libraries/XMCLib/inc\xmc_spi.h ****  *     - Added APIs for external input for BRG configuration:XMC_SPI_CH_ConfigExternalInputSignalTo
  62:C:/Workspaces/BachelorThesis/imu_test/Libraries/XMCLib/inc\xmc_spi.h ****  *
  63:C:/Workspaces/BachelorThesis/imu_test/Libraries/XMCLib/inc\xmc_spi.h ****  * 2015-09-01:
  64:C:/Workspaces/BachelorThesis/imu_test/Libraries/XMCLib/inc\xmc_spi.h ****  *     - Modified XMC_SPI_CH_SetInputSource() for avoiding complete DXCR register overwriting. <br>
  65:C:/Workspaces/BachelorThesis/imu_test/Libraries/XMCLib/inc\xmc_spi.h ****  *     - Modified XMC_SPI_CH_EVENT_t enum for supporting XMC_SPI_CH_EnableEvent() and XMC_SPI_CH_Di
  66:C:/Workspaces/BachelorThesis/imu_test/Libraries/XMCLib/inc\xmc_spi.h ****  *       for supporting multiple events configuration <br>
  67:C:/Workspaces/BachelorThesis/imu_test/Libraries/XMCLib/inc\xmc_spi.h ****  *
  68:C:/Workspaces/BachelorThesis/imu_test/Libraries/XMCLib/inc\xmc_spi.h ****  * 2015-09-08:
  69:C:/Workspaces/BachelorThesis/imu_test/Libraries/XMCLib/inc\xmc_spi.h ****  *     - Adding API for configuring the receiving clock phase in the slave:XMC_SPI_CH_DataLatchedIn
  70:C:/Workspaces/BachelorThesis/imu_test/Libraries/XMCLib/inc\xmc_spi.h ****  *
  71:C:/Workspaces/BachelorThesis/imu_test/Libraries/XMCLib/inc\xmc_spi.h ****  * 2016-04-10:
  72:C:/Workspaces/BachelorThesis/imu_test/Libraries/XMCLib/inc\xmc_spi.h ****  *     - Added an API for configuring the transmit mode:XMC_SPI_CH_SetTransmitMode() <br>
  73:C:/Workspaces/BachelorThesis/imu_test/Libraries/XMCLib/inc\xmc_spi.h ****  *
  74:C:/Workspaces/BachelorThesis/imu_test/Libraries/XMCLib/inc\xmc_spi.h ****  * 2016-05-20:
  75:C:/Workspaces/BachelorThesis/imu_test/Libraries/XMCLib/inc\xmc_spi.h ****  *     - Added XMC_SPI_CH_EnableDataTransmission() and XMC_SPI_CH_DisableDataTransmission()
  76:C:/Workspaces/BachelorThesis/imu_test/Libraries/XMCLib/inc\xmc_spi.h ****  *
  77:C:/Workspaces/BachelorThesis/imu_test/Libraries/XMCLib/inc\xmc_spi.h ****  * 2019-03-30:
  78:C:/Workspaces/BachelorThesis/imu_test/Libraries/XMCLib/inc\xmc_spi.h ****  *     - Fix XMC_SPI_CH_MODE_STANDARD_HALFDUPLEX macro value
  79:C:/Workspaces/BachelorThesis/imu_test/Libraries/XMCLib/inc\xmc_spi.h ****  *
  80:C:/Workspaces/BachelorThesis/imu_test/Libraries/XMCLib/inc\xmc_spi.h ****  * 2019-05-07:
  81:C:/Workspaces/BachelorThesis/imu_test/Libraries/XMCLib/inc\xmc_spi.h ****  *     - Added normal_divider_mode to XMC_SPI_CH_CONFIG_t configuration structure.
  82:C:/Workspaces/BachelorThesis/imu_test/Libraries/XMCLib/inc\xmc_spi.h ****  *       It selects normal divider mode for baudrate generator instead of default fractional divide
  83:C:/Workspaces/BachelorThesis/imu_test/Libraries/XMCLib/inc\xmc_spi.h ****  *     - Added XMC_SPI_CH_SetBaudrateEx()
  84:C:/Workspaces/BachelorThesis/imu_test/Libraries/XMCLib/inc\xmc_spi.h ****  *
  85:C:/Workspaces/BachelorThesis/imu_test/Libraries/XMCLib/inc\xmc_spi.h ****  * 2019-09-04:
  86:C:/Workspaces/BachelorThesis/imu_test/Libraries/XMCLib/inc\xmc_spi.h ****  *    - Added XMC_SPI_CLOCK_MODE_t enum
  87:C:/Workspaces/BachelorThesis/imu_test/Libraries/XMCLib/inc\xmc_spi.h ****  *
  88:C:/Workspaces/BachelorThesis/imu_test/Libraries/XMCLib/inc\xmc_spi.h ****  * 2020-12-05:
  89:C:/Workspaces/BachelorThesis/imu_test/Libraries/XMCLib/inc\xmc_spi.h ****  *    - Added XMC_SPI_CH_InitEx() that allows user select if automatic baudrate configuration shoul
  90:C:/Workspaces/BachelorThesis/imu_test/Libraries/XMCLib/inc\xmc_spi.h ****  * 
  91:C:/Workspaces/BachelorThesis/imu_test/Libraries/XMCLib/inc\xmc_spi.h ****  * @endcond
  92:C:/Workspaces/BachelorThesis/imu_test/Libraries/XMCLib/inc\xmc_spi.h ****  *
  93:C:/Workspaces/BachelorThesis/imu_test/Libraries/XMCLib/inc\xmc_spi.h ****  */
  94:C:/Workspaces/BachelorThesis/imu_test/Libraries/XMCLib/inc\xmc_spi.h **** 
  95:C:/Workspaces/BachelorThesis/imu_test/Libraries/XMCLib/inc\xmc_spi.h **** #ifndef XMC_SPI_H
  96:C:/Workspaces/BachelorThesis/imu_test/Libraries/XMCLib/inc\xmc_spi.h **** #define XMC_SPI_H
  97:C:/Workspaces/BachelorThesis/imu_test/Libraries/XMCLib/inc\xmc_spi.h **** 
  98:C:/Workspaces/BachelorThesis/imu_test/Libraries/XMCLib/inc\xmc_spi.h **** /**************************************************************************************************
  99:C:/Workspaces/BachelorThesis/imu_test/Libraries/XMCLib/inc\xmc_spi.h ****  * HEADER FILES
 100:C:/Workspaces/BachelorThesis/imu_test/Libraries/XMCLib/inc\xmc_spi.h ****  **************************************************************************************************
 101:C:/Workspaces/BachelorThesis/imu_test/Libraries/XMCLib/inc\xmc_spi.h **** #include "xmc_usic.h"
 102:C:/Workspaces/BachelorThesis/imu_test/Libraries/XMCLib/inc\xmc_spi.h **** 
 103:C:/Workspaces/BachelorThesis/imu_test/Libraries/XMCLib/inc\xmc_spi.h **** /**
 104:C:/Workspaces/BachelorThesis/imu_test/Libraries/XMCLib/inc\xmc_spi.h ****  * @addtogroup XMClib XMC Peripheral Library
 105:C:/Workspaces/BachelorThesis/imu_test/Libraries/XMCLib/inc\xmc_spi.h ****  * @{
 106:C:/Workspaces/BachelorThesis/imu_test/Libraries/XMCLib/inc\xmc_spi.h ****  */
 107:C:/Workspaces/BachelorThesis/imu_test/Libraries/XMCLib/inc\xmc_spi.h **** 
 108:C:/Workspaces/BachelorThesis/imu_test/Libraries/XMCLib/inc\xmc_spi.h **** /**
 109:C:/Workspaces/BachelorThesis/imu_test/Libraries/XMCLib/inc\xmc_spi.h ****  * @addtogroup SPI
 110:C:/Workspaces/BachelorThesis/imu_test/Libraries/XMCLib/inc\xmc_spi.h ****  * @brief Synchronous serial channel driver for SPI-like communication.
 111:C:/Workspaces/BachelorThesis/imu_test/Libraries/XMCLib/inc\xmc_spi.h ****  *
 112:C:/Workspaces/BachelorThesis/imu_test/Libraries/XMCLib/inc\xmc_spi.h ****  * The SPI driver uses Universal Serial Interface Channel(USIC) module.
 113:C:/Workspaces/BachelorThesis/imu_test/Libraries/XMCLib/inc\xmc_spi.h ****  * The USIC module supports multiple data lines for SPI communication. \n
 114:C:/Workspaces/BachelorThesis/imu_test/Libraries/XMCLib/inc\xmc_spi.h ****  * -# Full duplex communication with 2 separate lines for transmission and reception.
 115:C:/Workspaces/BachelorThesis/imu_test/Libraries/XMCLib/inc\xmc_spi.h ****  * -# Half duplex communication with 1 common line shared for transmission and reception.
 116:C:/Workspaces/BachelorThesis/imu_test/Libraries/XMCLib/inc\xmc_spi.h ****  * -# Dual mode communication with 2 common lines shared for transmission and reception.
 117:C:/Workspaces/BachelorThesis/imu_test/Libraries/XMCLib/inc\xmc_spi.h ****  * -# Quad mode communication with 4 common lines shared for transmission and reception.<br><br>
 118:C:/Workspaces/BachelorThesis/imu_test/Libraries/XMCLib/inc\xmc_spi.h ****  *
 119:C:/Workspaces/BachelorThesis/imu_test/Libraries/XMCLib/inc\xmc_spi.h ****  * SPI driver provides structures, enumerations and APIs for configuring the USIC channel for SPI c
 120:C:/Workspaces/BachelorThesis/imu_test/Libraries/XMCLib/inc\xmc_spi.h ****  * and also for data transaction.<br>
 121:C:/Workspaces/BachelorThesis/imu_test/Libraries/XMCLib/inc\xmc_spi.h ****  * SPI driver features:
 122:C:/Workspaces/BachelorThesis/imu_test/Libraries/XMCLib/inc\xmc_spi.h ****  * -# Configuration structure XMC_SPI_CH_CONFIG_t and SPI initialization function XMC_SPI_CH_Init()
 123:C:/Workspaces/BachelorThesis/imu_test/Libraries/XMCLib/inc\xmc_spi.h ****  * -# Allows configuration of protocol word and frame length using XMC_SPI_CH_SetWordLength(), XMC_
 124:C:/Workspaces/BachelorThesis/imu_test/Libraries/XMCLib/inc\xmc_spi.h ****  * -# Allows manipulation of data frame at runtime using XMC_SPI_CH_EnableSOF(), XMC_SPI_CH_EnableE
 125:C:/Workspaces/BachelorThesis/imu_test/Libraries/XMCLib/inc\xmc_spi.h ****  XMC_SPI_CH_EnableSlaveSelect(), XMC_SPI_CH_DisableSlaveSelect()
 126:C:/Workspaces/BachelorThesis/imu_test/Libraries/XMCLib/inc\xmc_spi.h ****  * -# Provides APIs for transmitting data and receiving data using XMC_SPI_CH_Transmit(), XMC_SPI_C
 127:C:/Workspaces/BachelorThesis/imu_test/Libraries/XMCLib/inc\xmc_spi.h ****  * -# Allows configuration of shift clock using XMC_SPI_CH_ConfigureShiftClockOutput()
 128:C:/Workspaces/BachelorThesis/imu_test/Libraries/XMCLib/inc\xmc_spi.h ****  * -# Provides enumeration of SPI protocol events using @ref XMC_SPI_CH_STATUS_FLAG_t
 129:C:/Workspaces/BachelorThesis/imu_test/Libraries/XMCLib/inc\xmc_spi.h ****  * @{
 130:C:/Workspaces/BachelorThesis/imu_test/Libraries/XMCLib/inc\xmc_spi.h ****  */
 131:C:/Workspaces/BachelorThesis/imu_test/Libraries/XMCLib/inc\xmc_spi.h **** 
 132:C:/Workspaces/BachelorThesis/imu_test/Libraries/XMCLib/inc\xmc_spi.h **** /**************************************************************************************************
 133:C:/Workspaces/BachelorThesis/imu_test/Libraries/XMCLib/inc\xmc_spi.h ****  * MACROS
 134:C:/Workspaces/BachelorThesis/imu_test/Libraries/XMCLib/inc\xmc_spi.h ****  **************************************************************************************************
 135:C:/Workspaces/BachelorThesis/imu_test/Libraries/XMCLib/inc\xmc_spi.h **** 
 136:C:/Workspaces/BachelorThesis/imu_test/Libraries/XMCLib/inc\xmc_spi.h **** #if defined(USIC0)
 137:C:/Workspaces/BachelorThesis/imu_test/Libraries/XMCLib/inc\xmc_spi.h **** #define XMC_SPI0_CH0 XMC_USIC0_CH0 /**< SPI0 channel 0 base address */
 138:C:/Workspaces/BachelorThesis/imu_test/Libraries/XMCLib/inc\xmc_spi.h **** #define XMC_SPI0_CH1 XMC_USIC0_CH1 /**< SPI0 channel 1 base address */
 139:C:/Workspaces/BachelorThesis/imu_test/Libraries/XMCLib/inc\xmc_spi.h **** #endif
 140:C:/Workspaces/BachelorThesis/imu_test/Libraries/XMCLib/inc\xmc_spi.h **** 
 141:C:/Workspaces/BachelorThesis/imu_test/Libraries/XMCLib/inc\xmc_spi.h **** #if defined(USIC1)
 142:C:/Workspaces/BachelorThesis/imu_test/Libraries/XMCLib/inc\xmc_spi.h **** #define XMC_SPI1_CH0 XMC_USIC1_CH0 /**< SPI1 channel 0 base address */
 143:C:/Workspaces/BachelorThesis/imu_test/Libraries/XMCLib/inc\xmc_spi.h **** #define XMC_SPI1_CH1 XMC_USIC1_CH1 /**< SPI1 channel 1 base address */
 144:C:/Workspaces/BachelorThesis/imu_test/Libraries/XMCLib/inc\xmc_spi.h **** #endif
 145:C:/Workspaces/BachelorThesis/imu_test/Libraries/XMCLib/inc\xmc_spi.h **** 
 146:C:/Workspaces/BachelorThesis/imu_test/Libraries/XMCLib/inc\xmc_spi.h **** #if defined(USIC2)
 147:C:/Workspaces/BachelorThesis/imu_test/Libraries/XMCLib/inc\xmc_spi.h **** #define XMC_SPI2_CH0 XMC_USIC2_CH0 /**< SPI2 channel 0 base address */
 148:C:/Workspaces/BachelorThesis/imu_test/Libraries/XMCLib/inc\xmc_spi.h **** #define XMC_SPI2_CH1 XMC_USIC2_CH1 /**< SPI2 channel 1 base address */
 149:C:/Workspaces/BachelorThesis/imu_test/Libraries/XMCLib/inc\xmc_spi.h **** #endif
 150:C:/Workspaces/BachelorThesis/imu_test/Libraries/XMCLib/inc\xmc_spi.h **** 
 151:C:/Workspaces/BachelorThesis/imu_test/Libraries/XMCLib/inc\xmc_spi.h **** /**************************************************************************************************
 152:C:/Workspaces/BachelorThesis/imu_test/Libraries/XMCLib/inc\xmc_spi.h ****  * ENUMS
 153:C:/Workspaces/BachelorThesis/imu_test/Libraries/XMCLib/inc\xmc_spi.h ****  **************************************************************************************************
 154:C:/Workspaces/BachelorThesis/imu_test/Libraries/XMCLib/inc\xmc_spi.h **** 
 155:C:/Workspaces/BachelorThesis/imu_test/Libraries/XMCLib/inc\xmc_spi.h **** /**
 156:C:/Workspaces/BachelorThesis/imu_test/Libraries/XMCLib/inc\xmc_spi.h ****  * Defines return status of SPI driver APIs
 157:C:/Workspaces/BachelorThesis/imu_test/Libraries/XMCLib/inc\xmc_spi.h ****  */
 158:C:/Workspaces/BachelorThesis/imu_test/Libraries/XMCLib/inc\xmc_spi.h **** typedef enum XMC_SPI_CH_STATUS
 159:C:/Workspaces/BachelorThesis/imu_test/Libraries/XMCLib/inc\xmc_spi.h **** {
 160:C:/Workspaces/BachelorThesis/imu_test/Libraries/XMCLib/inc\xmc_spi.h ****   XMC_SPI_CH_STATUS_OK,    /**< Status of the Module: OK */
 161:C:/Workspaces/BachelorThesis/imu_test/Libraries/XMCLib/inc\xmc_spi.h ****   XMC_SPI_CH_STATUS_ERROR, /**< Status of the Module: ERROR */
 162:C:/Workspaces/BachelorThesis/imu_test/Libraries/XMCLib/inc\xmc_spi.h ****   XMC_SPI_CH_STATUS_BUSY   /**< The Module is busy */
 163:C:/Workspaces/BachelorThesis/imu_test/Libraries/XMCLib/inc\xmc_spi.h **** } XMC_SPI_CH_STATUS_t;
 164:C:/Workspaces/BachelorThesis/imu_test/Libraries/XMCLib/inc\xmc_spi.h **** /**
 165:C:/Workspaces/BachelorThesis/imu_test/Libraries/XMCLib/inc\xmc_spi.h ****  * Defines the SPI bus mode
 166:C:/Workspaces/BachelorThesis/imu_test/Libraries/XMCLib/inc\xmc_spi.h ****  */
 167:C:/Workspaces/BachelorThesis/imu_test/Libraries/XMCLib/inc\xmc_spi.h **** typedef enum XMC_SPI_CH_BUS_MODE
 168:C:/Workspaces/BachelorThesis/imu_test/Libraries/XMCLib/inc\xmc_spi.h **** {
 169:C:/Workspaces/BachelorThesis/imu_test/Libraries/XMCLib/inc\xmc_spi.h ****   XMC_SPI_CH_BUS_MODE_MASTER, /**< SPI Master */
 170:C:/Workspaces/BachelorThesis/imu_test/Libraries/XMCLib/inc\xmc_spi.h ****   XMC_SPI_CH_BUS_MODE_SLAVE   /**< SPI Slave */
 171:C:/Workspaces/BachelorThesis/imu_test/Libraries/XMCLib/inc\xmc_spi.h **** } XMC_SPI_CH_BUS_MODE_t;
 172:C:/Workspaces/BachelorThesis/imu_test/Libraries/XMCLib/inc\xmc_spi.h **** 
 173:C:/Workspaces/BachelorThesis/imu_test/Libraries/XMCLib/inc\xmc_spi.h **** /**
 174:C:/Workspaces/BachelorThesis/imu_test/Libraries/XMCLib/inc\xmc_spi.h ****  * Defines the Polarity of the slave select signals SELO[7:0] in relation to the master slave selec
 175:C:/Workspaces/BachelorThesis/imu_test/Libraries/XMCLib/inc\xmc_spi.h ****  */
 176:C:/Workspaces/BachelorThesis/imu_test/Libraries/XMCLib/inc\xmc_spi.h **** typedef enum XMC_SPI_CH_SLAVE_SEL_MSLS_INV
 177:C:/Workspaces/BachelorThesis/imu_test/Libraries/XMCLib/inc\xmc_spi.h **** {
 178:C:/Workspaces/BachelorThesis/imu_test/Libraries/XMCLib/inc\xmc_spi.h ****   XMC_SPI_CH_SLAVE_SEL_SAME_AS_MSLS = 0x0UL, /**< The SELO outputs have the same polarity as the MS
 179:C:/Workspaces/BachelorThesis/imu_test/Libraries/XMCLib/inc\xmc_spi.h ****                                                   (active high) */
 180:C:/Workspaces/BachelorThesis/imu_test/Libraries/XMCLib/inc\xmc_spi.h ****   XMC_SPI_CH_SLAVE_SEL_INV_TO_MSLS = 0x1UL << USIC_CH_PCR_SSCMode_SELINV_Pos /**< The SELO outputs 
 181:C:/Workspaces/BachelorThesis/imu_test/Libraries/XMCLib/inc\xmc_spi.h ****                                                                                   polarity to the M
 182:C:/Workspaces/BachelorThesis/imu_test/Libraries/XMCLib/inc\xmc_spi.h ****                                                                                   (active low)*/
 183:C:/Workspaces/BachelorThesis/imu_test/Libraries/XMCLib/inc\xmc_spi.h **** } XMC_SPI_CH_SLAVE_SEL_MSLS_INV_t;
 184:C:/Workspaces/BachelorThesis/imu_test/Libraries/XMCLib/inc\xmc_spi.h **** 
 185:C:/Workspaces/BachelorThesis/imu_test/Libraries/XMCLib/inc\xmc_spi.h **** /**
 186:C:/Workspaces/BachelorThesis/imu_test/Libraries/XMCLib/inc\xmc_spi.h ****  * Defines the Polarity of the data inputs.
 187:C:/Workspaces/BachelorThesis/imu_test/Libraries/XMCLib/inc\xmc_spi.h ****  */
 188:C:/Workspaces/BachelorThesis/imu_test/Libraries/XMCLib/inc\xmc_spi.h **** typedef enum XMC_SPI_CH_DATA_POLARITY
 189:C:/Workspaces/BachelorThesis/imu_test/Libraries/XMCLib/inc\xmc_spi.h **** {
 190:C:/Workspaces/BachelorThesis/imu_test/Libraries/XMCLib/inc\xmc_spi.h ****   XMC_SPI_CH_DATA_POLARITY_DIRECT = 0x0UL, /**< The polarity of the data line is not inverted */
 191:C:/Workspaces/BachelorThesis/imu_test/Libraries/XMCLib/inc\xmc_spi.h ****   XMC_SPI_CH_DATA_POLARITY_INVERT = 0x1UL << USIC_CH_DX2CR_DPOL_Pos /**< The polarity of the data l
 192:C:/Workspaces/BachelorThesis/imu_test/Libraries/XMCLib/inc\xmc_spi.h **** } XMC_SPI_CH_DATA_POLARITY_t;
 193:C:/Workspaces/BachelorThesis/imu_test/Libraries/XMCLib/inc\xmc_spi.h **** 
 194:C:/Workspaces/BachelorThesis/imu_test/Libraries/XMCLib/inc\xmc_spi.h **** /**
 195:C:/Workspaces/BachelorThesis/imu_test/Libraries/XMCLib/inc\xmc_spi.h ****  * Defines Slave Select lines
 196:C:/Workspaces/BachelorThesis/imu_test/Libraries/XMCLib/inc\xmc_spi.h ****  */
 197:C:/Workspaces/BachelorThesis/imu_test/Libraries/XMCLib/inc\xmc_spi.h **** typedef enum XMC_SPI_CH_SLAVE_SELECT
 198:C:/Workspaces/BachelorThesis/imu_test/Libraries/XMCLib/inc\xmc_spi.h **** {
 199:C:/Workspaces/BachelorThesis/imu_test/Libraries/XMCLib/inc\xmc_spi.h ****   XMC_SPI_CH_SLAVE_SELECT_0 = 1UL << USIC_CH_PCR_SSCMode_SELO_Pos,  /**< Slave Select line 0 */
 200:C:/Workspaces/BachelorThesis/imu_test/Libraries/XMCLib/inc\xmc_spi.h ****   XMC_SPI_CH_SLAVE_SELECT_1 = 2UL << USIC_CH_PCR_SSCMode_SELO_Pos,  /**< Slave Select line 1 */
 201:C:/Workspaces/BachelorThesis/imu_test/Libraries/XMCLib/inc\xmc_spi.h ****   XMC_SPI_CH_SLAVE_SELECT_2 = 4UL << USIC_CH_PCR_SSCMode_SELO_Pos,  /**< Slave Select line 2 */
 202:C:/Workspaces/BachelorThesis/imu_test/Libraries/XMCLib/inc\xmc_spi.h ****   XMC_SPI_CH_SLAVE_SELECT_3 = 8UL << USIC_CH_PCR_SSCMode_SELO_Pos,  /**< Slave Select line 3 */
 203:C:/Workspaces/BachelorThesis/imu_test/Libraries/XMCLib/inc\xmc_spi.h ****   XMC_SPI_CH_SLAVE_SELECT_4 = 16UL << USIC_CH_PCR_SSCMode_SELO_Pos, /**< Slave Select line 4 */
 204:C:/Workspaces/BachelorThesis/imu_test/Libraries/XMCLib/inc\xmc_spi.h ****   XMC_SPI_CH_SLAVE_SELECT_5 = 32UL << USIC_CH_PCR_SSCMode_SELO_Pos, /**< Slave Select line 5 */
 205:C:/Workspaces/BachelorThesis/imu_test/Libraries/XMCLib/inc\xmc_spi.h ****   XMC_SPI_CH_SLAVE_SELECT_6 = 64UL << USIC_CH_PCR_SSCMode_SELO_Pos, /**< Slave Select line 6 */
 206:C:/Workspaces/BachelorThesis/imu_test/Libraries/XMCLib/inc\xmc_spi.h ****   XMC_SPI_CH_SLAVE_SELECT_7 = 128UL << USIC_CH_PCR_SSCMode_SELO_Pos /**< Slave Select line 7 */
 207:C:/Workspaces/BachelorThesis/imu_test/Libraries/XMCLib/inc\xmc_spi.h **** } XMC_SPI_CH_SLAVE_SELECT_t;
 208:C:/Workspaces/BachelorThesis/imu_test/Libraries/XMCLib/inc\xmc_spi.h **** 
 209:C:/Workspaces/BachelorThesis/imu_test/Libraries/XMCLib/inc\xmc_spi.h **** /**
 210:C:/Workspaces/BachelorThesis/imu_test/Libraries/XMCLib/inc\xmc_spi.h ****  * Defines SPI specific events
 211:C:/Workspaces/BachelorThesis/imu_test/Libraries/XMCLib/inc\xmc_spi.h ****  */
 212:C:/Workspaces/BachelorThesis/imu_test/Libraries/XMCLib/inc\xmc_spi.h **** typedef enum XMC_SPI_CH_EVENT
 213:C:/Workspaces/BachelorThesis/imu_test/Libraries/XMCLib/inc\xmc_spi.h **** {
 214:C:/Workspaces/BachelorThesis/imu_test/Libraries/XMCLib/inc\xmc_spi.h ****   XMC_SPI_CH_EVENT_RECEIVE_START       = USIC_CH_CCR_RSIEN_Msk, /**< Receive start event */
 215:C:/Workspaces/BachelorThesis/imu_test/Libraries/XMCLib/inc\xmc_spi.h ****   XMC_SPI_CH_EVENT_DATA_LOST           = USIC_CH_CCR_DLIEN_Msk, /**< Data lost event */
 216:C:/Workspaces/BachelorThesis/imu_test/Libraries/XMCLib/inc\xmc_spi.h ****   XMC_SPI_CH_EVENT_TRANSMIT_SHIFT      = USIC_CH_CCR_TSIEN_Msk, /**< Transmit shift event */
 217:C:/Workspaces/BachelorThesis/imu_test/Libraries/XMCLib/inc\xmc_spi.h ****   XMC_SPI_CH_EVENT_TRANSMIT_BUFFER     = USIC_CH_CCR_TBIEN_Msk, /**< Transmit buffer event */
 218:C:/Workspaces/BachelorThesis/imu_test/Libraries/XMCLib/inc\xmc_spi.h ****   XMC_SPI_CH_EVENT_STANDARD_RECEIVE    = USIC_CH_CCR_RIEN_Msk,  /**< Receive event */
 219:C:/Workspaces/BachelorThesis/imu_test/Libraries/XMCLib/inc\xmc_spi.h ****   XMC_SPI_CH_EVENT_ALTERNATIVE_RECEIVE = USIC_CH_CCR_AIEN_Msk,  /**< Alternate receive event */
 220:C:/Workspaces/BachelorThesis/imu_test/Libraries/XMCLib/inc\xmc_spi.h ****   XMC_SPI_CH_EVENT_BAUD_RATE_GENERATOR = USIC_CH_CCR_BRGIEN_Msk, /**< Baudrate generator event */
 221:C:/Workspaces/BachelorThesis/imu_test/Libraries/XMCLib/inc\xmc_spi.h **** 
 222:C:/Workspaces/BachelorThesis/imu_test/Libraries/XMCLib/inc\xmc_spi.h ****   XMC_SPI_CH_EVENT_PARITY_ERROR = USIC_CH_PCR_SSCMode_PARIEN_Msk >> 13U,       /**< Parity error ev
 223:C:/Workspaces/BachelorThesis/imu_test/Libraries/XMCLib/inc\xmc_spi.h ****   XMC_SPI_CH_EVENT_MSLS_CHANGE =  USIC_CH_PCR_SSCMode_MSLSIEN_Msk >> 13U,      /**< Master slave se
 224:C:/Workspaces/BachelorThesis/imu_test/Libraries/XMCLib/inc\xmc_spi.h ****   XMC_SPI_CH_EVENT_DX2TIEN_ACTIVATED = USIC_CH_PCR_SSCMode_DX2TIEN_Msk >> 13U  /**< Slave select in
 225:C:/Workspaces/BachelorThesis/imu_test/Libraries/XMCLib/inc\xmc_spi.h **** } XMC_SPI_CH_EVENT_t;
 226:C:/Workspaces/BachelorThesis/imu_test/Libraries/XMCLib/inc\xmc_spi.h **** 
 227:C:/Workspaces/BachelorThesis/imu_test/Libraries/XMCLib/inc\xmc_spi.h **** /**
 228:C:/Workspaces/BachelorThesis/imu_test/Libraries/XMCLib/inc\xmc_spi.h ****  * Defines SPI event status
 229:C:/Workspaces/BachelorThesis/imu_test/Libraries/XMCLib/inc\xmc_spi.h ****  */
 230:C:/Workspaces/BachelorThesis/imu_test/Libraries/XMCLib/inc\xmc_spi.h **** typedef enum XMC_SPI_CH_STATUS_FLAG
 231:C:/Workspaces/BachelorThesis/imu_test/Libraries/XMCLib/inc\xmc_spi.h **** {
 232:C:/Workspaces/BachelorThesis/imu_test/Libraries/XMCLib/inc\xmc_spi.h ****   XMC_SPI_CH_STATUS_FLAG_MSLS = USIC_CH_PSR_SSCMode_MSLS_Msk,                          /**< Status 
 233:C:/Workspaces/BachelorThesis/imu_test/Libraries/XMCLib/inc\xmc_spi.h ****                                                                                             select(
 234:C:/Workspaces/BachelorThesis/imu_test/Libraries/XMCLib/inc\xmc_spi.h ****   XMC_SPI_CH_STATUS_FLAG_DX2S = USIC_CH_PSR_SSCMode_DX2S_Msk,                          /**< Status 
 235:C:/Workspaces/BachelorThesis/imu_test/Libraries/XMCLib/inc\xmc_spi.h ****                                                                                             input(D
 236:C:/Workspaces/BachelorThesis/imu_test/Libraries/XMCLib/inc\xmc_spi.h ****   XMC_SPI_CH_STATUS_FLAG_MSLS_EVENT_DETECTED = USIC_CH_PSR_SSCMode_MSLSEV_Msk,         /**< Status 
 237:C:/Workspaces/BachelorThesis/imu_test/Libraries/XMCLib/inc\xmc_spi.h ****                                                                                             output 
 238:C:/Workspaces/BachelorThesis/imu_test/Libraries/XMCLib/inc\xmc_spi.h ****   XMC_SPI_CH_STATUS_FLAG_DX2T_EVENT_DETECTED = USIC_CH_PSR_SSCMode_DX2TEV_Msk,         /**< Status 
 239:C:/Workspaces/BachelorThesis/imu_test/Libraries/XMCLib/inc\xmc_spi.h ****                                                                                             input s
 240:C:/Workspaces/BachelorThesis/imu_test/Libraries/XMCLib/inc\xmc_spi.h ****   XMC_SPI_CH_STATUS_FLAG_PARITY_ERROR_EVENT_DETECTED = USIC_CH_PSR_SSCMode_PARERR_Msk, /**< Indicat
 241:C:/Workspaces/BachelorThesis/imu_test/Libraries/XMCLib/inc\xmc_spi.h ****                                                                                             parity 
 242:C:/Workspaces/BachelorThesis/imu_test/Libraries/XMCLib/inc\xmc_spi.h ****   XMC_SPI_CH_STATUS_FLAG_RECEIVER_START_INDICATION = USIC_CH_PSR_SSCMode_RSIF_Msk,     /**< Status 
 243:C:/Workspaces/BachelorThesis/imu_test/Libraries/XMCLib/inc\xmc_spi.h ****                                                                                             event *
 244:C:/Workspaces/BachelorThesis/imu_test/Libraries/XMCLib/inc\xmc_spi.h ****   XMC_SPI_CH_STATUS_FLAG_DATA_LOST_INDICATION = USIC_CH_PSR_SSCMode_DLIF_Msk,          /**< Status 
 245:C:/Workspaces/BachelorThesis/imu_test/Libraries/XMCLib/inc\xmc_spi.h ****   XMC_SPI_CH_STATUS_FLAG_TRANSMIT_SHIFT_INDICATION = USIC_CH_PSR_SSCMode_TSIF_Msk,      /**< Status
 246:C:/Workspaces/BachelorThesis/imu_test/Libraries/XMCLib/inc\xmc_spi.h ****                                                                                             event *
 247:C:/Workspaces/BachelorThesis/imu_test/Libraries/XMCLib/inc\xmc_spi.h ****   XMC_SPI_CH_STATUS_FLAG_TRANSMIT_BUFFER_INDICATION = USIC_CH_PSR_SSCMode_TBIF_Msk,    /**< Status 
 248:C:/Workspaces/BachelorThesis/imu_test/Libraries/XMCLib/inc\xmc_spi.h ****                                                                                             event *
 249:C:/Workspaces/BachelorThesis/imu_test/Libraries/XMCLib/inc\xmc_spi.h ****   XMC_SPI_CH_STATUS_FLAG_RECEIVE_INDICATION = USIC_CH_PSR_SSCMode_RIF_Msk,             /**< Status 
 250:C:/Workspaces/BachelorThesis/imu_test/Libraries/XMCLib/inc\xmc_spi.h ****   XMC_SPI_CH_STATUS_FLAG_ALTERNATIVE_RECEIVE_INDICATION = USIC_CH_PSR_SSCMode_AIF_Msk, /**< Status 
 251:C:/Workspaces/BachelorThesis/imu_test/Libraries/XMCLib/inc\xmc_spi.h ****                                                                                             receive
 252:C:/Workspaces/BachelorThesis/imu_test/Libraries/XMCLib/inc\xmc_spi.h ****   XMC_SPI_CH_STATUS_FLAG_BAUD_RATE_GENERATOR_INDICATION = USIC_CH_PSR_SSCMode_BRGIF_Msk/**< Status 
 253:C:/Workspaces/BachelorThesis/imu_test/Libraries/XMCLib/inc\xmc_spi.h ****                                                                                             generat
 254:C:/Workspaces/BachelorThesis/imu_test/Libraries/XMCLib/inc\xmc_spi.h **** } XMC_SPI_CH_STATUS_FLAG_t;
 255:C:/Workspaces/BachelorThesis/imu_test/Libraries/XMCLib/inc\xmc_spi.h **** 
 256:C:/Workspaces/BachelorThesis/imu_test/Libraries/XMCLib/inc\xmc_spi.h **** /**
 257:C:/Workspaces/BachelorThesis/imu_test/Libraries/XMCLib/inc\xmc_spi.h ****  * Defines input frequency sources for slave select signal delay configuration.
 258:C:/Workspaces/BachelorThesis/imu_test/Libraries/XMCLib/inc\xmc_spi.h ****  */
 259:C:/Workspaces/BachelorThesis/imu_test/Libraries/XMCLib/inc\xmc_spi.h **** typedef enum XMC_SPI_CH_INPUT_FREQ_SLAVE_SELECT_DELAY
 260:C:/Workspaces/BachelorThesis/imu_test/Libraries/XMCLib/inc\xmc_spi.h **** {
 261:C:/Workspaces/BachelorThesis/imu_test/Libraries/XMCLib/inc\xmc_spi.h ****   XMC_SPI_CH_INPUT_FREQ_SLAVE_SELECT_DELAY_FPDIV = 0x0UL, /**< Output of PDIV divider: FPDIV */
 262:C:/Workspaces/BachelorThesis/imu_test/Libraries/XMCLib/inc\xmc_spi.h ****   XMC_SPI_CH_INPUT_FREQ_SLAVE_SELECT_DELAY_FPPP  = 0x1UL << USIC_CH_PCR_SSCMode_CTQSEL1_Pos, /**< P
 263:C:/Workspaces/BachelorThesis/imu_test/Libraries/XMCLib/inc\xmc_spi.h ****   XMC_SPI_CH_INPUT_FREQ_SLAVE_SELECT_DELAY_FSCLK = 0x2UL << USIC_CH_PCR_SSCMode_CTQSEL1_Pos, /**< S
 264:C:/Workspaces/BachelorThesis/imu_test/Libraries/XMCLib/inc\xmc_spi.h ****   XMC_SPI_CH_INPUT_FREQ_SLAVE_SELECT_DELAY_FMCLK = 0x3UL << USIC_CH_PCR_SSCMode_CTQSEL1_Pos  /**< M
 265:C:/Workspaces/BachelorThesis/imu_test/Libraries/XMCLib/inc\xmc_spi.h **** } XMC_SPI_CH_INPUT_FREQ_SLAVE_SELECT_DELAY_t;
 266:C:/Workspaces/BachelorThesis/imu_test/Libraries/XMCLib/inc\xmc_spi.h **** 
 267:C:/Workspaces/BachelorThesis/imu_test/Libraries/XMCLib/inc\xmc_spi.h **** /**
 268:C:/Workspaces/BachelorThesis/imu_test/Libraries/XMCLib/inc\xmc_spi.h ****  * Define data and clock input stages
 269:C:/Workspaces/BachelorThesis/imu_test/Libraries/XMCLib/inc\xmc_spi.h ****  */
 270:C:/Workspaces/BachelorThesis/imu_test/Libraries/XMCLib/inc\xmc_spi.h **** typedef enum XMC_SPI_CH_INPUT
 271:C:/Workspaces/BachelorThesis/imu_test/Libraries/XMCLib/inc\xmc_spi.h **** {
 272:C:/Workspaces/BachelorThesis/imu_test/Libraries/XMCLib/inc\xmc_spi.h ****   XMC_SPI_CH_INPUT_DIN0 = 0UL,         /**< Data input stage 0 */
 273:C:/Workspaces/BachelorThesis/imu_test/Libraries/XMCLib/inc\xmc_spi.h ****   XMC_SPI_CH_INPUT_SLAVE_SCLKIN = 1UL, /**< Clock input stage */
 274:C:/Workspaces/BachelorThesis/imu_test/Libraries/XMCLib/inc\xmc_spi.h ****   XMC_SPI_CH_INPUT_SLAVE_SELIN = 2UL,  /**< Slave select input stage */
 275:C:/Workspaces/BachelorThesis/imu_test/Libraries/XMCLib/inc\xmc_spi.h ****   XMC_SPI_CH_INPUT_DIN1 = 3UL,         /**< Data input stage 1 */
 276:C:/Workspaces/BachelorThesis/imu_test/Libraries/XMCLib/inc\xmc_spi.h ****   XMC_SPI_CH_INPUT_DIN2 = 4UL,         /**< Data input stage 2 */
 277:C:/Workspaces/BachelorThesis/imu_test/Libraries/XMCLib/inc\xmc_spi.h ****   XMC_SPI_CH_INPUT_DIN3 = 5UL          /**< Data input stage 3 */
 278:C:/Workspaces/BachelorThesis/imu_test/Libraries/XMCLib/inc\xmc_spi.h **** } XMC_SPI_CH_INPUT_t;
 279:C:/Workspaces/BachelorThesis/imu_test/Libraries/XMCLib/inc\xmc_spi.h **** 
 280:C:/Workspaces/BachelorThesis/imu_test/Libraries/XMCLib/inc\xmc_spi.h **** /**
 281:C:/Workspaces/BachelorThesis/imu_test/Libraries/XMCLib/inc\xmc_spi.h ****  * Define SPI data transfer mode
 282:C:/Workspaces/BachelorThesis/imu_test/Libraries/XMCLib/inc\xmc_spi.h ****  */
 283:C:/Workspaces/BachelorThesis/imu_test/Libraries/XMCLib/inc\xmc_spi.h **** typedef enum XMC_SPI_CH_MODE
 284:C:/Workspaces/BachelorThesis/imu_test/Libraries/XMCLib/inc\xmc_spi.h **** {
 285:C:/Workspaces/BachelorThesis/imu_test/Libraries/XMCLib/inc\xmc_spi.h ****   XMC_SPI_CH_MODE_STANDARD = 0UL,            /**< SPI standard full duplex mode */
 286:C:/Workspaces/BachelorThesis/imu_test/Libraries/XMCLib/inc\xmc_spi.h ****   XMC_SPI_CH_MODE_STANDARD_HALFDUPLEX = 5UL, /**< SPI standard half duplex mode */
 287:C:/Workspaces/BachelorThesis/imu_test/Libraries/XMCLib/inc\xmc_spi.h ****   XMC_SPI_CH_MODE_DUAL = 6UL,                /**< SPI half duplex mode with dual data lines */
 288:C:/Workspaces/BachelorThesis/imu_test/Libraries/XMCLib/inc\xmc_spi.h ****   XMC_SPI_CH_MODE_QUAD = 7UL                 /**< SPI half duplex mode with quad data lines */
 289:C:/Workspaces/BachelorThesis/imu_test/Libraries/XMCLib/inc\xmc_spi.h **** } XMC_SPI_CH_MODE_t;
 290:C:/Workspaces/BachelorThesis/imu_test/Libraries/XMCLib/inc\xmc_spi.h **** 
 291:C:/Workspaces/BachelorThesis/imu_test/Libraries/XMCLib/inc\xmc_spi.h **** 
 292:C:/Workspaces/BachelorThesis/imu_test/Libraries/XMCLib/inc\xmc_spi.h **** /**
 293:C:/Workspaces/BachelorThesis/imu_test/Libraries/XMCLib/inc\xmc_spi.h ****  * SPI Baudrate Generator shift clock passive level
 294:C:/Workspaces/BachelorThesis/imu_test/Libraries/XMCLib/inc\xmc_spi.h ****  */
 295:C:/Workspaces/BachelorThesis/imu_test/Libraries/XMCLib/inc\xmc_spi.h **** typedef enum XMC_SPI_CH_BRG_SHIFT_CLOCK_PASSIVE_LEVEL
 296:C:/Workspaces/BachelorThesis/imu_test/Libraries/XMCLib/inc\xmc_spi.h **** {
 297:C:/Workspaces/BachelorThesis/imu_test/Libraries/XMCLib/inc\xmc_spi.h ****   /**< Passive clock level 0, delay disabled */
 298:C:/Workspaces/BachelorThesis/imu_test/Libraries/XMCLib/inc\xmc_spi.h ****   XMC_SPI_CH_BRG_SHIFT_CLOCK_PASSIVE_LEVEL_0_DELAY_DISABLED = XMC_USIC_CH_BRG_SHIFT_CLOCK_PASSIVE_L
 299:C:/Workspaces/BachelorThesis/imu_test/Libraries/XMCLib/inc\xmc_spi.h ****   /**< Passive clock level 1, delay disabled */
 300:C:/Workspaces/BachelorThesis/imu_test/Libraries/XMCLib/inc\xmc_spi.h ****   XMC_SPI_CH_BRG_SHIFT_CLOCK_PASSIVE_LEVEL_1_DELAY_DISABLED = XMC_USIC_CH_BRG_SHIFT_CLOCK_PASSIVE_L
 301:C:/Workspaces/BachelorThesis/imu_test/Libraries/XMCLib/inc\xmc_spi.h ****   /**< Passive clock level 0, delay enabled */
 302:C:/Workspaces/BachelorThesis/imu_test/Libraries/XMCLib/inc\xmc_spi.h ****   XMC_SPI_CH_BRG_SHIFT_CLOCK_PASSIVE_LEVEL_0_DELAY_ENABLED  = XMC_USIC_CH_BRG_SHIFT_CLOCK_PASSIVE_L
 303:C:/Workspaces/BachelorThesis/imu_test/Libraries/XMCLib/inc\xmc_spi.h ****   /**< Passive clock level 1, delay enabled */
 304:C:/Workspaces/BachelorThesis/imu_test/Libraries/XMCLib/inc\xmc_spi.h ****   XMC_SPI_CH_BRG_SHIFT_CLOCK_PASSIVE_LEVEL_1_DELAY_ENABLED  = XMC_USIC_CH_BRG_SHIFT_CLOCK_PASSIVE_L
 305:C:/Workspaces/BachelorThesis/imu_test/Libraries/XMCLib/inc\xmc_spi.h **** } XMC_SPI_CH_BRG_SHIFT_CLOCK_PASSIVE_LEVEL_t;
 306:C:/Workspaces/BachelorThesis/imu_test/Libraries/XMCLib/inc\xmc_spi.h **** 
 307:C:/Workspaces/BachelorThesis/imu_test/Libraries/XMCLib/inc\xmc_spi.h **** /**
 308:C:/Workspaces/BachelorThesis/imu_test/Libraries/XMCLib/inc\xmc_spi.h ****  * SPI clock modes
 309:C:/Workspaces/BachelorThesis/imu_test/Libraries/XMCLib/inc\xmc_spi.h ****  */
 310:C:/Workspaces/BachelorThesis/imu_test/Libraries/XMCLib/inc\xmc_spi.h **** 
 311:C:/Workspaces/BachelorThesis/imu_test/Libraries/XMCLib/inc\xmc_spi.h **** /* CPOL=0 is a clock which idles at 0, and each cycle consists of a pulse of 1. That is, the leadin
 312:C:/Workspaces/BachelorThesis/imu_test/Libraries/XMCLib/inc\xmc_spi.h **** /* CPOL=1 is a clock which idles at 1, and each cycle consists of a pulse of 0. That is, the leadin
 313:C:/Workspaces/BachelorThesis/imu_test/Libraries/XMCLib/inc\xmc_spi.h **** /* CPHA=0, the "out" side changes the data on the trailing edge of the preceding clock cycle, while
 314:C:/Workspaces/BachelorThesis/imu_test/Libraries/XMCLib/inc\xmc_spi.h ****    The out side holds the data valid until the trailing edge of the current clock cycle. For the fi
 315:C:/Workspaces/BachelorThesis/imu_test/Libraries/XMCLib/inc\xmc_spi.h **** /* For CPHA=1, the "out" side changes the data on the leading edge of the current clock cycle, whil
 316:C:/Workspaces/BachelorThesis/imu_test/Libraries/XMCLib/inc\xmc_spi.h ****   The out side holds the data valid until the leading edge of the following clock cycle. For the la
 317:C:/Workspaces/BachelorThesis/imu_test/Libraries/XMCLib/inc\xmc_spi.h **** typedef enum XMC_SPI_CLOCK_MODE
 318:C:/Workspaces/BachelorThesis/imu_test/Libraries/XMCLib/inc\xmc_spi.h **** {
 319:C:/Workspaces/BachelorThesis/imu_test/Libraries/XMCLib/inc\xmc_spi.h ****   XMC_SPI_CPOL_0_CPHA_0 = XMC_SPI_CH_BRG_SHIFT_CLOCK_PASSIVE_LEVEL_0_DELAY_ENABLED,
 320:C:/Workspaces/BachelorThesis/imu_test/Libraries/XMCLib/inc\xmc_spi.h ****   XMC_SPI_CPOL_0_CPHA_1 = XMC_SPI_CH_BRG_SHIFT_CLOCK_PASSIVE_LEVEL_0_DELAY_DISABLED,
 321:C:/Workspaces/BachelorThesis/imu_test/Libraries/XMCLib/inc\xmc_spi.h ****   XMC_SPI_CPOL_1_CPHA_0 = XMC_SPI_CH_BRG_SHIFT_CLOCK_PASSIVE_LEVEL_1_DELAY_DISABLED,
 322:C:/Workspaces/BachelorThesis/imu_test/Libraries/XMCLib/inc\xmc_spi.h ****   XMC_SPI_CPOL_1_CPHA_1 = XMC_SPI_CH_BRG_SHIFT_CLOCK_PASSIVE_LEVEL_1_DELAY_ENABLED
 323:C:/Workspaces/BachelorThesis/imu_test/Libraries/XMCLib/inc\xmc_spi.h **** } XMC_SPI_CLOCK_MODE_t;
 324:C:/Workspaces/BachelorThesis/imu_test/Libraries/XMCLib/inc\xmc_spi.h **** 
 325:C:/Workspaces/BachelorThesis/imu_test/Libraries/XMCLib/inc\xmc_spi.h **** /**
 326:C:/Workspaces/BachelorThesis/imu_test/Libraries/XMCLib/inc\xmc_spi.h ****  * SPI Baudrate Generator shift clock output
 327:C:/Workspaces/BachelorThesis/imu_test/Libraries/XMCLib/inc\xmc_spi.h **** */
 328:C:/Workspaces/BachelorThesis/imu_test/Libraries/XMCLib/inc\xmc_spi.h **** typedef enum XMC_SPI_CH_BRG_SHIFT_CLOCK_OUTPUT
 329:C:/Workspaces/BachelorThesis/imu_test/Libraries/XMCLib/inc\xmc_spi.h **** {
 330:C:/Workspaces/BachelorThesis/imu_test/Libraries/XMCLib/inc\xmc_spi.h ****   XMC_SPI_CH_BRG_SHIFT_CLOCK_OUTPUT_SCLK = XMC_USIC_CH_BRG_SHIFT_CLOCK_OUTPUT_SCLK,  /**< Baudrate 
 331:C:/Workspaces/BachelorThesis/imu_test/Libraries/XMCLib/inc\xmc_spi.h ****   XMC_SPI_CH_BRG_SHIFT_CLOCK_OUTPUT_DX1  = XMC_USIC_CH_BRG_SHIFT_CLOCK_OUTPUT_DX1   /**< Clock obta
 332:C:/Workspaces/BachelorThesis/imu_test/Libraries/XMCLib/inc\xmc_spi.h **** } XMC_SPI_CH_BRG_SHIFT_CLOCK_OUTPUT_t;
 333:C:/Workspaces/BachelorThesis/imu_test/Libraries/XMCLib/inc\xmc_spi.h **** 
 334:C:/Workspaces/BachelorThesis/imu_test/Libraries/XMCLib/inc\xmc_spi.h **** /**
 335:C:/Workspaces/BachelorThesis/imu_test/Libraries/XMCLib/inc\xmc_spi.h ****  * SPI channel interrupt node pointers
 336:C:/Workspaces/BachelorThesis/imu_test/Libraries/XMCLib/inc\xmc_spi.h ****  */
 337:C:/Workspaces/BachelorThesis/imu_test/Libraries/XMCLib/inc\xmc_spi.h **** typedef enum XMC_SPI_CH_INTERRUPT_NODE_POINTER
 338:C:/Workspaces/BachelorThesis/imu_test/Libraries/XMCLib/inc\xmc_spi.h **** {
 339:C:/Workspaces/BachelorThesis/imu_test/Libraries/XMCLib/inc\xmc_spi.h ****   XMC_SPI_CH_INTERRUPT_NODE_POINTER_TRANSMIT_SHIFT      = XMC_USIC_CH_INTERRUPT_NODE_POINTER_TRANSM
 340:C:/Workspaces/BachelorThesis/imu_test/Libraries/XMCLib/inc\xmc_spi.h ****   XMC_SPI_CH_INTERRUPT_NODE_POINTER_TRANSMIT_BUFFER     = XMC_USIC_CH_INTERRUPT_NODE_POINTER_TRANSM
 341:C:/Workspaces/BachelorThesis/imu_test/Libraries/XMCLib/inc\xmc_spi.h ****   XMC_SPI_CH_INTERRUPT_NODE_POINTER_RECEIVE             = XMC_USIC_CH_INTERRUPT_NODE_POINTER_RECEIV
 342:C:/Workspaces/BachelorThesis/imu_test/Libraries/XMCLib/inc\xmc_spi.h ****   XMC_SPI_CH_INTERRUPT_NODE_POINTER_ALTERNATE_RECEIVE   = XMC_USIC_CH_INTERRUPT_NODE_POINTER_ALTERN
 343:C:/Workspaces/BachelorThesis/imu_test/Libraries/XMCLib/inc\xmc_spi.h ****   XMC_SPI_CH_INTERRUPT_NODE_POINTER_PROTOCOL            = XMC_USIC_CH_INTERRUPT_NODE_POINTER_PROTOC
 344:C:/Workspaces/BachelorThesis/imu_test/Libraries/XMCLib/inc\xmc_spi.h **** } XMC_SPI_CH_INTERRUPT_NODE_POINTER_t;
 345:C:/Workspaces/BachelorThesis/imu_test/Libraries/XMCLib/inc\xmc_spi.h **** 
 346:C:/Workspaces/BachelorThesis/imu_test/Libraries/XMCLib/inc\xmc_spi.h **** /**************************************************************************************************
 347:C:/Workspaces/BachelorThesis/imu_test/Libraries/XMCLib/inc\xmc_spi.h ****  * DATA STRUCTURES
 348:C:/Workspaces/BachelorThesis/imu_test/Libraries/XMCLib/inc\xmc_spi.h **** ***************************************************************************************************
 349:C:/Workspaces/BachelorThesis/imu_test/Libraries/XMCLib/inc\xmc_spi.h **** 
 350:C:/Workspaces/BachelorThesis/imu_test/Libraries/XMCLib/inc\xmc_spi.h **** /**
 351:C:/Workspaces/BachelorThesis/imu_test/Libraries/XMCLib/inc\xmc_spi.h ****  * Structure for initializing SPI channel.
 352:C:/Workspaces/BachelorThesis/imu_test/Libraries/XMCLib/inc\xmc_spi.h ****  */
 353:C:/Workspaces/BachelorThesis/imu_test/Libraries/XMCLib/inc\xmc_spi.h **** typedef struct XMC_SPI_CH_CONFIG
 354:C:/Workspaces/BachelorThesis/imu_test/Libraries/XMCLib/inc\xmc_spi.h **** {
 355:C:/Workspaces/BachelorThesis/imu_test/Libraries/XMCLib/inc\xmc_spi.h ****   uint32_t baudrate;							                /**< Module baud rate for communication */
 356:C:/Workspaces/BachelorThesis/imu_test/Libraries/XMCLib/inc\xmc_spi.h ****   bool normal_divider_mode;                       /**< Selects normal divider mode for baudrate gen
 357:C:/Workspaces/BachelorThesis/imu_test/Libraries/XMCLib/inc\xmc_spi.h ****   XMC_SPI_CH_BUS_MODE_t bus_mode;                 /**< Bus mode: Master/Slave */
 358:C:/Workspaces/BachelorThesis/imu_test/Libraries/XMCLib/inc\xmc_spi.h ****   XMC_SPI_CH_SLAVE_SEL_MSLS_INV_t selo_inversion; /**< Enable inversion of Slave select signal rela
 359:C:/Workspaces/BachelorThesis/imu_test/Libraries/XMCLib/inc\xmc_spi.h ****                                                        MSLS signal  */
 360:C:/Workspaces/BachelorThesis/imu_test/Libraries/XMCLib/inc\xmc_spi.h ****   XMC_USIC_CH_PARITY_MODE_t parity_mode;          /**< Enable parity check for transmit and receive
 361:C:/Workspaces/BachelorThesis/imu_test/Libraries/XMCLib/inc\xmc_spi.h **** } XMC_SPI_CH_CONFIG_t;
 362:C:/Workspaces/BachelorThesis/imu_test/Libraries/XMCLib/inc\xmc_spi.h **** 
 363:C:/Workspaces/BachelorThesis/imu_test/Libraries/XMCLib/inc\xmc_spi.h **** /**************************************************************************************************
 364:C:/Workspaces/BachelorThesis/imu_test/Libraries/XMCLib/inc\xmc_spi.h ****  * API PROTOTYPES
 365:C:/Workspaces/BachelorThesis/imu_test/Libraries/XMCLib/inc\xmc_spi.h ****  **************************************************************************************************
 366:C:/Workspaces/BachelorThesis/imu_test/Libraries/XMCLib/inc\xmc_spi.h **** 
 367:C:/Workspaces/BachelorThesis/imu_test/Libraries/XMCLib/inc\xmc_spi.h **** #ifdef __cplusplus
 368:C:/Workspaces/BachelorThesis/imu_test/Libraries/XMCLib/inc\xmc_spi.h **** extern "C" {
 369:C:/Workspaces/BachelorThesis/imu_test/Libraries/XMCLib/inc\xmc_spi.h **** #endif
 370:C:/Workspaces/BachelorThesis/imu_test/Libraries/XMCLib/inc\xmc_spi.h **** 
 371:C:/Workspaces/BachelorThesis/imu_test/Libraries/XMCLib/inc\xmc_spi.h **** /**
 372:C:/Workspaces/BachelorThesis/imu_test/Libraries/XMCLib/inc\xmc_spi.h ****  * @param channel A constant pointer to XMC_USIC_CH_t, pointing to the USIC channel base address.
 373:C:/Workspaces/BachelorThesis/imu_test/Libraries/XMCLib/inc\xmc_spi.h ****  * @param config pointer to constant SPI channel configuration data structure.\n
 374:C:/Workspaces/BachelorThesis/imu_test/Libraries/XMCLib/inc\xmc_spi.h ****  *               Refer data structure @ref XMC_SPI_CH_CONFIG_t for detail.
 375:C:/Workspaces/BachelorThesis/imu_test/Libraries/XMCLib/inc\xmc_spi.h ****  * @param init_brg Selects if the baudrate generator should be configured automatically.
 376:C:/Workspaces/BachelorThesis/imu_test/Libraries/XMCLib/inc\xmc_spi.h ****  *
 377:C:/Workspaces/BachelorThesis/imu_test/Libraries/XMCLib/inc\xmc_spi.h ****  * @return None
 378:C:/Workspaces/BachelorThesis/imu_test/Libraries/XMCLib/inc\xmc_spi.h ****  *
 379:C:/Workspaces/BachelorThesis/imu_test/Libraries/XMCLib/inc\xmc_spi.h ****  * \par<b>Description:</b><br>
 380:C:/Workspaces/BachelorThesis/imu_test/Libraries/XMCLib/inc\xmc_spi.h ****  * Initializes the selected SPI \a channel with the \a config structure.\n\n
 381:C:/Workspaces/BachelorThesis/imu_test/Libraries/XMCLib/inc\xmc_spi.h ****  * Enable SPI channel by calling XMC_USIC_CH_Enable() and then configures
 382:C:/Workspaces/BachelorThesis/imu_test/Libraries/XMCLib/inc\xmc_spi.h ****  * <ul>
 383:C:/Workspaces/BachelorThesis/imu_test/Libraries/XMCLib/inc\xmc_spi.h ****  * <li>Baudrate,</li>
 384:C:/Workspaces/BachelorThesis/imu_test/Libraries/XMCLib/inc\xmc_spi.h ****  * <li>Passive data level as active high,</li>
 385:C:/Workspaces/BachelorThesis/imu_test/Libraries/XMCLib/inc\xmc_spi.h ****  * <li>Shift control signal as active high,</li>
 386:C:/Workspaces/BachelorThesis/imu_test/Libraries/XMCLib/inc\xmc_spi.h ****  * <li>Frame length as 64U,</li>
 387:C:/Workspaces/BachelorThesis/imu_test/Libraries/XMCLib/inc\xmc_spi.h ****  * <li>Word length as 8U,</li>
 388:C:/Workspaces/BachelorThesis/imu_test/Libraries/XMCLib/inc\xmc_spi.h ****  * <li>Enable Hardware port control mode,</li>
 389:C:/Workspaces/BachelorThesis/imu_test/Libraries/XMCLib/inc\xmc_spi.h ****  * <li>Enable transmission of data TDV(Transmit data valid) bit is set to 1,</li>
 390:C:/Workspaces/BachelorThesis/imu_test/Libraries/XMCLib/inc\xmc_spi.h ****  * <li>Enable invalidation of data in TBUF once loaded into shift register,</li>
 391:C:/Workspaces/BachelorThesis/imu_test/Libraries/XMCLib/inc\xmc_spi.h ****  * <li>Parity mode settings</li>
 392:C:/Workspaces/BachelorThesis/imu_test/Libraries/XMCLib/inc\xmc_spi.h ****  * </ul>
 393:C:/Workspaces/BachelorThesis/imu_test/Libraries/XMCLib/inc\xmc_spi.h ****  * And if master mode is selected,
 394:C:/Workspaces/BachelorThesis/imu_test/Libraries/XMCLib/inc\xmc_spi.h ****  * <ul>
 395:C:/Workspaces/BachelorThesis/imu_test/Libraries/XMCLib/inc\xmc_spi.h ****  * <li>Enables MSLS signal generation,</li>
 396:C:/Workspaces/BachelorThesis/imu_test/Libraries/XMCLib/inc\xmc_spi.h ****  * <li>configures slave selection as normal mode,</li>
 397:C:/Workspaces/BachelorThesis/imu_test/Libraries/XMCLib/inc\xmc_spi.h ****  * <li>Set polarity for the Slave signal,</li>
 398:C:/Workspaces/BachelorThesis/imu_test/Libraries/XMCLib/inc\xmc_spi.h ****  * <li>Enable Frame end mode(MSLS signal is kept active after transmission of a frame)</li>
 399:C:/Workspaces/BachelorThesis/imu_test/Libraries/XMCLib/inc\xmc_spi.h ****  * </ul>
 400:C:/Workspaces/BachelorThesis/imu_test/Libraries/XMCLib/inc\xmc_spi.h ****  */
 401:C:/Workspaces/BachelorThesis/imu_test/Libraries/XMCLib/inc\xmc_spi.h **** void XMC_SPI_CH_InitEx(XMC_USIC_CH_t *const channel, const XMC_SPI_CH_CONFIG_t *const config, bool 
 402:C:/Workspaces/BachelorThesis/imu_test/Libraries/XMCLib/inc\xmc_spi.h **** 
 403:C:/Workspaces/BachelorThesis/imu_test/Libraries/XMCLib/inc\xmc_spi.h **** /**
 404:C:/Workspaces/BachelorThesis/imu_test/Libraries/XMCLib/inc\xmc_spi.h ****  * @param channel A constant pointer to XMC_USIC_CH_t, pointing to the USIC channel base address.
 405:C:/Workspaces/BachelorThesis/imu_test/Libraries/XMCLib/inc\xmc_spi.h ****  * @param config pointer to constant SPI channel configuration data structure.\n
 406:C:/Workspaces/BachelorThesis/imu_test/Libraries/XMCLib/inc\xmc_spi.h ****  *               Refer data structure @ref XMC_SPI_CH_CONFIG_t for detail.
 407:C:/Workspaces/BachelorThesis/imu_test/Libraries/XMCLib/inc\xmc_spi.h ****  *
 408:C:/Workspaces/BachelorThesis/imu_test/Libraries/XMCLib/inc\xmc_spi.h ****  * @return None
 409:C:/Workspaces/BachelorThesis/imu_test/Libraries/XMCLib/inc\xmc_spi.h ****  *
 410:C:/Workspaces/BachelorThesis/imu_test/Libraries/XMCLib/inc\xmc_spi.h ****  * \par<b>Description:</b><br>
 411:C:/Workspaces/BachelorThesis/imu_test/Libraries/XMCLib/inc\xmc_spi.h ****  * Initializes the selected SPI \a channel with the \a config structure.\n\n
 412:C:/Workspaces/BachelorThesis/imu_test/Libraries/XMCLib/inc\xmc_spi.h ****  * Enable SPI channel by calling XMC_USIC_CH_Enable() and then configures
 413:C:/Workspaces/BachelorThesis/imu_test/Libraries/XMCLib/inc\xmc_spi.h ****  * <ul>
 414:C:/Workspaces/BachelorThesis/imu_test/Libraries/XMCLib/inc\xmc_spi.h ****  * <li>Baudrate,</li>
 415:C:/Workspaces/BachelorThesis/imu_test/Libraries/XMCLib/inc\xmc_spi.h ****  * <li>Passive data level as active high,</li>
 416:C:/Workspaces/BachelorThesis/imu_test/Libraries/XMCLib/inc\xmc_spi.h ****  * <li>Shift control signal as active high,</li>
 417:C:/Workspaces/BachelorThesis/imu_test/Libraries/XMCLib/inc\xmc_spi.h ****  * <li>Frame length as 64U,</li>
 418:C:/Workspaces/BachelorThesis/imu_test/Libraries/XMCLib/inc\xmc_spi.h ****  * <li>Word length as 8U,</li>
 419:C:/Workspaces/BachelorThesis/imu_test/Libraries/XMCLib/inc\xmc_spi.h ****  * <li>Enable Hardware port control mode,</li>
 420:C:/Workspaces/BachelorThesis/imu_test/Libraries/XMCLib/inc\xmc_spi.h ****  * <li>Enable transmission of data TDV(Transmit data valid) bit is set to 1,</li>
 421:C:/Workspaces/BachelorThesis/imu_test/Libraries/XMCLib/inc\xmc_spi.h ****  * <li>Enable invalidation of data in TBUF once loaded into shift register,</li>
 422:C:/Workspaces/BachelorThesis/imu_test/Libraries/XMCLib/inc\xmc_spi.h ****  * <li>Parity mode settings</li>
 423:C:/Workspaces/BachelorThesis/imu_test/Libraries/XMCLib/inc\xmc_spi.h ****  * </ul>
 424:C:/Workspaces/BachelorThesis/imu_test/Libraries/XMCLib/inc\xmc_spi.h ****  * And if master mode is selected,
 425:C:/Workspaces/BachelorThesis/imu_test/Libraries/XMCLib/inc\xmc_spi.h ****  * <ul>
 426:C:/Workspaces/BachelorThesis/imu_test/Libraries/XMCLib/inc\xmc_spi.h ****  * <li>Enables MSLS signal generation,</li>
 427:C:/Workspaces/BachelorThesis/imu_test/Libraries/XMCLib/inc\xmc_spi.h ****  * <li>configures slave selection as normal mode,</li>
 428:C:/Workspaces/BachelorThesis/imu_test/Libraries/XMCLib/inc\xmc_spi.h ****  * <li>Set polarity for the Slave signal,</li>
 429:C:/Workspaces/BachelorThesis/imu_test/Libraries/XMCLib/inc\xmc_spi.h ****  * <li>Enable Frame end mode(MSLS signal is kept active after transmission of a frame)</li>
 430:C:/Workspaces/BachelorThesis/imu_test/Libraries/XMCLib/inc\xmc_spi.h ****  * </ul>
 431:C:/Workspaces/BachelorThesis/imu_test/Libraries/XMCLib/inc\xmc_spi.h ****  */
 432:C:/Workspaces/BachelorThesis/imu_test/Libraries/XMCLib/inc\xmc_spi.h **** __STATIC_INLINE void XMC_SPI_CH_Init(XMC_USIC_CH_t *const channel, const XMC_SPI_CH_CONFIG_t *const
 433:C:/Workspaces/BachelorThesis/imu_test/Libraries/XMCLib/inc\xmc_spi.h **** {
 434:C:/Workspaces/BachelorThesis/imu_test/Libraries/XMCLib/inc\xmc_spi.h ****   XMC_SPI_CH_InitEx(channel, config, true);
 435:C:/Workspaces/BachelorThesis/imu_test/Libraries/XMCLib/inc\xmc_spi.h **** }
 436:C:/Workspaces/BachelorThesis/imu_test/Libraries/XMCLib/inc\xmc_spi.h **** 
 437:C:/Workspaces/BachelorThesis/imu_test/Libraries/XMCLib/inc\xmc_spi.h **** /**
 438:C:/Workspaces/BachelorThesis/imu_test/Libraries/XMCLib/inc\xmc_spi.h ****  * @param channel A constant pointer to XMC_USIC_CH_t, pointing to the USIC channel base address.
 439:C:/Workspaces/BachelorThesis/imu_test/Libraries/XMCLib/inc\xmc_spi.h ****  *
 440:C:/Workspaces/BachelorThesis/imu_test/Libraries/XMCLib/inc\xmc_spi.h ****  * @return None
 441:C:/Workspaces/BachelorThesis/imu_test/Libraries/XMCLib/inc\xmc_spi.h ****  *
 442:C:/Workspaces/BachelorThesis/imu_test/Libraries/XMCLib/inc\xmc_spi.h ****  * \par<b>Description:</b><br>
 443:C:/Workspaces/BachelorThesis/imu_test/Libraries/XMCLib/inc\xmc_spi.h ****  * Set the selected USIC channel to operate in SPI mode, by setting CCR.MODE bits.\n\n
 444:C:/Workspaces/BachelorThesis/imu_test/Libraries/XMCLib/inc\xmc_spi.h ****  * It should be executed after XMC_SPI_CH_Init() during initialization. By invoking XMC_SPI_CH_Stop
 445:C:/Workspaces/BachelorThesis/imu_test/Libraries/XMCLib/inc\xmc_spi.h ****  * to IDLE state. Call XMC_SPI_CH_Start() to set the SPI mode again, as needed later in the program
 446:C:/Workspaces/BachelorThesis/imu_test/Libraries/XMCLib/inc\xmc_spi.h ****  *
 447:C:/Workspaces/BachelorThesis/imu_test/Libraries/XMCLib/inc\xmc_spi.h ****  * \par<b>Related APIs:</b><BR>
 448:C:/Workspaces/BachelorThesis/imu_test/Libraries/XMCLib/inc\xmc_spi.h ****  * XMC_SPI_CH_Init(), XMC_SPI_CH_Stop()
 449:C:/Workspaces/BachelorThesis/imu_test/Libraries/XMCLib/inc\xmc_spi.h ****  */
 450:C:/Workspaces/BachelorThesis/imu_test/Libraries/XMCLib/inc\xmc_spi.h **** __STATIC_INLINE void XMC_SPI_CH_Start(XMC_USIC_CH_t *const channel)
 451:C:/Workspaces/BachelorThesis/imu_test/Libraries/XMCLib/inc\xmc_spi.h **** {
 452:C:/Workspaces/BachelorThesis/imu_test/Libraries/XMCLib/inc\xmc_spi.h ****   /* USIC channel in SPI mode */
 453:C:/Workspaces/BachelorThesis/imu_test/Libraries/XMCLib/inc\xmc_spi.h ****   XMC_USIC_CH_SetMode(channel, XMC_USIC_CH_OPERATING_MODE_SPI);
 454:C:/Workspaces/BachelorThesis/imu_test/Libraries/XMCLib/inc\xmc_spi.h **** }
 455:C:/Workspaces/BachelorThesis/imu_test/Libraries/XMCLib/inc\xmc_spi.h **** 
 456:C:/Workspaces/BachelorThesis/imu_test/Libraries/XMCLib/inc\xmc_spi.h **** /**
 457:C:/Workspaces/BachelorThesis/imu_test/Libraries/XMCLib/inc\xmc_spi.h ****  * @param channel A constant pointer to XMC_USIC_CH_t, pointing to the USIC channel base address.
 458:C:/Workspaces/BachelorThesis/imu_test/Libraries/XMCLib/inc\xmc_spi.h ****  *
 459:C:/Workspaces/BachelorThesis/imu_test/Libraries/XMCLib/inc\xmc_spi.h ****  * @return XMC_SPI_CH_STATUS_t Status of the SPI driver after the request for stopping is processed
 460:C:/Workspaces/BachelorThesis/imu_test/Libraries/XMCLib/inc\xmc_spi.h ****  *        XMC_SPI_CH_STATUS_OK- If the USIC channel is successfully put to IDLE mode. \n
 461:C:/Workspaces/BachelorThesis/imu_test/Libraries/XMCLib/inc\xmc_spi.h ****  *        XMC_SPI_CH_STATUS_BUSY- If the USIC channel is busy transmitting data.
 462:C:/Workspaces/BachelorThesis/imu_test/Libraries/XMCLib/inc\xmc_spi.h ****  *
 463:C:/Workspaces/BachelorThesis/imu_test/Libraries/XMCLib/inc\xmc_spi.h ****  * \par<b>Description:</b><br>
 464:C:/Workspaces/BachelorThesis/imu_test/Libraries/XMCLib/inc\xmc_spi.h ****  * Set the selected SPI channel to IDLE mode, by clearing CCR.MODE bits.\n\n
 465:C:/Workspaces/BachelorThesis/imu_test/Libraries/XMCLib/inc\xmc_spi.h ****  * After calling XMC_SPI_CH_Stop, channel is IDLE mode. So no communication is supported. XMC_SPI_C
 466:C:/Workspaces/BachelorThesis/imu_test/Libraries/XMCLib/inc\xmc_spi.h ****  * invoked to start the communication again.
 467:C:/Workspaces/BachelorThesis/imu_test/Libraries/XMCLib/inc\xmc_spi.h ****  *
 468:C:/Workspaces/BachelorThesis/imu_test/Libraries/XMCLib/inc\xmc_spi.h ****  * \par<b>Related APIs:</b><BR>
 469:C:/Workspaces/BachelorThesis/imu_test/Libraries/XMCLib/inc\xmc_spi.h ****  * XMC_SPI_CH_Start()
 470:C:/Workspaces/BachelorThesis/imu_test/Libraries/XMCLib/inc\xmc_spi.h ****  */
 471:C:/Workspaces/BachelorThesis/imu_test/Libraries/XMCLib/inc\xmc_spi.h **** XMC_SPI_CH_STATUS_t XMC_SPI_CH_Stop(XMC_USIC_CH_t *const channel);
 472:C:/Workspaces/BachelorThesis/imu_test/Libraries/XMCLib/inc\xmc_spi.h **** 
 473:C:/Workspaces/BachelorThesis/imu_test/Libraries/XMCLib/inc\xmc_spi.h **** /**
 474:C:/Workspaces/BachelorThesis/imu_test/Libraries/XMCLib/inc\xmc_spi.h ****  * @param channel A constant pointer to XMC_USIC_CH_t, pointing to the USIC channel base address.
 475:C:/Workspaces/BachelorThesis/imu_test/Libraries/XMCLib/inc\xmc_spi.h ****  * @param rate Bus speed in bits per second
 476:C:/Workspaces/BachelorThesis/imu_test/Libraries/XMCLib/inc\xmc_spi.h ****  *
 477:C:/Workspaces/BachelorThesis/imu_test/Libraries/XMCLib/inc\xmc_spi.h ****  * @return XMC_SPI_CH_STATUS_t Status of the SPI driver after the request for setting baudrate is p
 478:C:/Workspaces/BachelorThesis/imu_test/Libraries/XMCLib/inc\xmc_spi.h ****  *        XMC_SPI_CH_STATUS_OK- If the baudrate is successfully changed. \n
 479:C:/Workspaces/BachelorThesis/imu_test/Libraries/XMCLib/inc\xmc_spi.h ****  *        XMC_SPI_CH_STATUS_ERROR- If the new baudrate value is out of range.
 480:C:/Workspaces/BachelorThesis/imu_test/Libraries/XMCLib/inc\xmc_spi.h ****  *
 481:C:/Workspaces/BachelorThesis/imu_test/Libraries/XMCLib/inc\xmc_spi.h ****  * \par<b>Description:</b><br>
 482:C:/Workspaces/BachelorThesis/imu_test/Libraries/XMCLib/inc\xmc_spi.h ****  * Sets the bus speed in bits per second
 483:C:/Workspaces/BachelorThesis/imu_test/Libraries/XMCLib/inc\xmc_spi.h ****  *
 484:C:/Workspaces/BachelorThesis/imu_test/Libraries/XMCLib/inc\xmc_spi.h ****  * \par<b>Related APIs:</b><BR>
 485:C:/Workspaces/BachelorThesis/imu_test/Libraries/XMCLib/inc\xmc_spi.h ****  * XMC_SPI_CH_Init(), XMC_SPI_CH_Stop(), XMC_USIC_CH_GetSCLKFrequency()
 486:C:/Workspaces/BachelorThesis/imu_test/Libraries/XMCLib/inc\xmc_spi.h ****  */
 487:C:/Workspaces/BachelorThesis/imu_test/Libraries/XMCLib/inc\xmc_spi.h **** XMC_SPI_CH_STATUS_t XMC_SPI_CH_SetBaudrate(XMC_USIC_CH_t *const channel, const uint32_t rate);
 488:C:/Workspaces/BachelorThesis/imu_test/Libraries/XMCLib/inc\xmc_spi.h **** 
 489:C:/Workspaces/BachelorThesis/imu_test/Libraries/XMCLib/inc\xmc_spi.h **** /**
 490:C:/Workspaces/BachelorThesis/imu_test/Libraries/XMCLib/inc\xmc_spi.h ****  * @param channel A constant pointer to XMC_USIC_CH_t, pointing to the USIC channel base address.
 491:C:/Workspaces/BachelorThesis/imu_test/Libraries/XMCLib/inc\xmc_spi.h ****  * @param rate Bus speed in bits per second
 492:C:/Workspaces/BachelorThesis/imu_test/Libraries/XMCLib/inc\xmc_spi.h ****  * @param normal_divider_mode Selects normal divider mode for baudrate generator instead of default
 493:C:/Workspaces/BachelorThesis/imu_test/Libraries/XMCLib/inc\xmc_spi.h ****  *
 494:C:/Workspaces/BachelorThesis/imu_test/Libraries/XMCLib/inc\xmc_spi.h ****  * @return XMC_SPI_CH_STATUS_t Status of the SPI driver after the request for setting baudrate is p
 495:C:/Workspaces/BachelorThesis/imu_test/Libraries/XMCLib/inc\xmc_spi.h ****  *        XMC_SPI_CH_STATUS_OK- If the baudrate is successfully changed. \n
 496:C:/Workspaces/BachelorThesis/imu_test/Libraries/XMCLib/inc\xmc_spi.h ****  *        XMC_SPI_CH_STATUS_ERROR- If the new baudrate value is out of range.
 497:C:/Workspaces/BachelorThesis/imu_test/Libraries/XMCLib/inc\xmc_spi.h ****  *
 498:C:/Workspaces/BachelorThesis/imu_test/Libraries/XMCLib/inc\xmc_spi.h ****  * \par<b>Description:</b><br>
 499:C:/Workspaces/BachelorThesis/imu_test/Libraries/XMCLib/inc\xmc_spi.h ****  * Sets the bus speed in bits per second
 500:C:/Workspaces/BachelorThesis/imu_test/Libraries/XMCLib/inc\xmc_spi.h ****  *
 501:C:/Workspaces/BachelorThesis/imu_test/Libraries/XMCLib/inc\xmc_spi.h ****  * \par<b>Related APIs:</b><BR>
 502:C:/Workspaces/BachelorThesis/imu_test/Libraries/XMCLib/inc\xmc_spi.h ****  * XMC_SPI_CH_Init(), XMC_SPI_CH_Stop(), XMC_USIC_CH_GetSCLKFrequency()
 503:C:/Workspaces/BachelorThesis/imu_test/Libraries/XMCLib/inc\xmc_spi.h ****  */
 504:C:/Workspaces/BachelorThesis/imu_test/Libraries/XMCLib/inc\xmc_spi.h **** XMC_SPI_CH_STATUS_t XMC_SPI_CH_SetBaudrateEx(XMC_USIC_CH_t *const channel, const uint32_t rate, boo
 505:C:/Workspaces/BachelorThesis/imu_test/Libraries/XMCLib/inc\xmc_spi.h **** 
 506:C:/Workspaces/BachelorThesis/imu_test/Libraries/XMCLib/inc\xmc_spi.h **** /**
 507:C:/Workspaces/BachelorThesis/imu_test/Libraries/XMCLib/inc\xmc_spi.h ****  * @param channel A constant pointer to XMC_USIC_CH_t, pointing to the USIC channel base address.
 508:C:/Workspaces/BachelorThesis/imu_test/Libraries/XMCLib/inc\xmc_spi.h ****  * @param slave Slave select signal.\n
 509:C:/Workspaces/BachelorThesis/imu_test/Libraries/XMCLib/inc\xmc_spi.h ****  *              Refer @ref XMC_SPI_CH_SLAVE_SELECT_t for valid values.
 510:C:/Workspaces/BachelorThesis/imu_test/Libraries/XMCLib/inc\xmc_spi.h ****  *
 511:C:/Workspaces/BachelorThesis/imu_test/Libraries/XMCLib/inc\xmc_spi.h ****  * @return None
 512:C:/Workspaces/BachelorThesis/imu_test/Libraries/XMCLib/inc\xmc_spi.h ****  *
 513:C:/Workspaces/BachelorThesis/imu_test/Libraries/XMCLib/inc\xmc_spi.h ****  * \par<b>Description:</b><br>
 514:C:/Workspaces/BachelorThesis/imu_test/Libraries/XMCLib/inc\xmc_spi.h ****  * Enable the selected slave signal by setting PCR.SELO bits.\n\n
 515:C:/Workspaces/BachelorThesis/imu_test/Libraries/XMCLib/inc\xmc_spi.h ****  * Each slave is connected with one slave select signal. This is not configured in XMC_SPI_CH_Init(
 516:C:/Workspaces/BachelorThesis/imu_test/Libraries/XMCLib/inc\xmc_spi.h ****  * XMC_SPI_CH_EnableSlaveSelect() with required \a slave to to start the communication. After finis
 517:C:/Workspaces/BachelorThesis/imu_test/Libraries/XMCLib/inc\xmc_spi.h ****  * communication XMC_SPI_CH_DisableSlaveSelect() can be invoked to disable the slaves.
 518:C:/Workspaces/BachelorThesis/imu_test/Libraries/XMCLib/inc\xmc_spi.h ****  *
 519:C:/Workspaces/BachelorThesis/imu_test/Libraries/XMCLib/inc\xmc_spi.h ****  * \par<b>Related APIs:</b><BR>
 520:C:/Workspaces/BachelorThesis/imu_test/Libraries/XMCLib/inc\xmc_spi.h ****  * XMC_SPI_CH_DisableSlaveSelect()
 521:C:/Workspaces/BachelorThesis/imu_test/Libraries/XMCLib/inc\xmc_spi.h ****  */
 522:C:/Workspaces/BachelorThesis/imu_test/Libraries/XMCLib/inc\xmc_spi.h **** void XMC_SPI_CH_EnableSlaveSelect(XMC_USIC_CH_t *const channel, const XMC_SPI_CH_SLAVE_SELECT_t sla
 523:C:/Workspaces/BachelorThesis/imu_test/Libraries/XMCLib/inc\xmc_spi.h **** 
 524:C:/Workspaces/BachelorThesis/imu_test/Libraries/XMCLib/inc\xmc_spi.h **** /**
 525:C:/Workspaces/BachelorThesis/imu_test/Libraries/XMCLib/inc\xmc_spi.h ****  * @param channel A constant ponter to XMC_USIC_CH_t, pointing to the USIC channel base address.
 526:C:/Workspaces/BachelorThesis/imu_test/Libraries/XMCLib/inc\xmc_spi.h ****  *
 527:C:/Workspaces/BachelorThesis/imu_test/Libraries/XMCLib/inc\xmc_spi.h ****  * @return None
 528:C:/Workspaces/BachelorThesis/imu_test/Libraries/XMCLib/inc\xmc_spi.h ****  *
 529:C:/Workspaces/BachelorThesis/imu_test/Libraries/XMCLib/inc\xmc_spi.h ****  * \par<b>Description:</b><br>
 530:C:/Workspaces/BachelorThesis/imu_test/Libraries/XMCLib/inc\xmc_spi.h ****  * Disable all the slave signals by clearing PCR.SELO bits.\n\n
 531:C:/Workspaces/BachelorThesis/imu_test/Libraries/XMCLib/inc\xmc_spi.h ****  * XMC_SPI_CH_EnableSlaveSelect() has to be invoked to start the communication with the desired sla
 532:C:/Workspaces/BachelorThesis/imu_test/Libraries/XMCLib/inc\xmc_spi.h ****  *
 533:C:/Workspaces/BachelorThesis/imu_test/Libraries/XMCLib/inc\xmc_spi.h ****  * \par<b>Related APIs:</b><BR>
 534:C:/Workspaces/BachelorThesis/imu_test/Libraries/XMCLib/inc\xmc_spi.h ****  * XMC_SPI_CH_EnableSlaveSelect()
 535:C:/Workspaces/BachelorThesis/imu_test/Libraries/XMCLib/inc\xmc_spi.h ****  */
 536:C:/Workspaces/BachelorThesis/imu_test/Libraries/XMCLib/inc\xmc_spi.h **** void XMC_SPI_CH_DisableSlaveSelect(XMC_USIC_CH_t *const channel);
 537:C:/Workspaces/BachelorThesis/imu_test/Libraries/XMCLib/inc\xmc_spi.h **** 
 538:C:/Workspaces/BachelorThesis/imu_test/Libraries/XMCLib/inc\xmc_spi.h **** /**
 539:C:/Workspaces/BachelorThesis/imu_test/Libraries/XMCLib/inc\xmc_spi.h ****  * @param channel A constant pointer to XMC_USIC_CH_t, pointing to the USIC channel base address.
 540:C:/Workspaces/BachelorThesis/imu_test/Libraries/XMCLib/inc\xmc_spi.h ****  * @param mode Communication mode of the SPI, based on this mode TCI(Transmit control information)i
 541:C:/Workspaces/BachelorThesis/imu_test/Libraries/XMCLib/inc\xmc_spi.h ****  *             Refer @ref XMC_SPI_CH_MODE_t for valid values.
 542:C:/Workspaces/BachelorThesis/imu_test/Libraries/XMCLib/inc\xmc_spi.h ****  *
 543:C:/Workspaces/BachelorThesis/imu_test/Libraries/XMCLib/inc\xmc_spi.h ****  * @return None
 544:C:/Workspaces/BachelorThesis/imu_test/Libraries/XMCLib/inc\xmc_spi.h ****  *
 545:C:/Workspaces/BachelorThesis/imu_test/Libraries/XMCLib/inc\xmc_spi.h ****  * \par<b>Description:</b><br>
 546:C:/Workspaces/BachelorThesis/imu_test/Libraries/XMCLib/inc\xmc_spi.h ****  * In Dual and Quad modes,  hardware port control(CCR.HPCEN) mode is enabled. \n\n
 547:C:/Workspaces/BachelorThesis/imu_test/Libraries/XMCLib/inc\xmc_spi.h ****  * By enabling this the direction of the data pin is updated by hardware itself. Before transmittin
 548:C:/Workspaces/BachelorThesis/imu_test/Libraries/XMCLib/inc\xmc_spi.h ****  * mode to ensure the proper communication.
 549:C:/Workspaces/BachelorThesis/imu_test/Libraries/XMCLib/inc\xmc_spi.h ****  *
 550:C:/Workspaces/BachelorThesis/imu_test/Libraries/XMCLib/inc\xmc_spi.h ****  * \par<b>Related APIs:</b><BR>
 551:C:/Workspaces/BachelorThesis/imu_test/Libraries/XMCLib/inc\xmc_spi.h ****  * XMC_SPI_CH_Transmit()
 552:C:/Workspaces/BachelorThesis/imu_test/Libraries/XMCLib/inc\xmc_spi.h ****  */
 553:C:/Workspaces/BachelorThesis/imu_test/Libraries/XMCLib/inc\xmc_spi.h **** __STATIC_INLINE void XMC_SPI_CH_SetTransmitMode(XMC_USIC_CH_t *const channel, const XMC_SPI_CH_MODE
 554:C:/Workspaces/BachelorThesis/imu_test/Libraries/XMCLib/inc\xmc_spi.h **** {
 555:C:/Workspaces/BachelorThesis/imu_test/Libraries/XMCLib/inc\xmc_spi.h ****   channel->CCR = (channel->CCR & (uint32_t)(~USIC_CH_CCR_HPCEN_Msk)) |
 556:C:/Workspaces/BachelorThesis/imu_test/Libraries/XMCLib/inc\xmc_spi.h ****                  (((uint32_t) mode << USIC_CH_CCR_HPCEN_Pos) & (uint32_t)USIC_CH_CCR_HPCEN_Msk);
 557:C:/Workspaces/BachelorThesis/imu_test/Libraries/XMCLib/inc\xmc_spi.h **** }
 558:C:/Workspaces/BachelorThesis/imu_test/Libraries/XMCLib/inc\xmc_spi.h **** 
 559:C:/Workspaces/BachelorThesis/imu_test/Libraries/XMCLib/inc\xmc_spi.h **** /**
 560:C:/Workspaces/BachelorThesis/imu_test/Libraries/XMCLib/inc\xmc_spi.h ****  * @param channel A constant pointer to XMC_USIC_CH_t, pointing to the USIC channel base address.
 561:C:/Workspaces/BachelorThesis/imu_test/Libraries/XMCLib/inc\xmc_spi.h ****  * @param data Data to be transmitted
 562:C:/Workspaces/BachelorThesis/imu_test/Libraries/XMCLib/inc\xmc_spi.h ****  * @param mode Communication mode of the SPI, based on this mode TCI(Transmit control information)i
 563:C:/Workspaces/BachelorThesis/imu_test/Libraries/XMCLib/inc\xmc_spi.h ****  *             Refer @ref XMC_SPI_CH_MODE_t for valid values.
 564:C:/Workspaces/BachelorThesis/imu_test/Libraries/XMCLib/inc\xmc_spi.h ****  *
 565:C:/Workspaces/BachelorThesis/imu_test/Libraries/XMCLib/inc\xmc_spi.h ****  * @return None
 566:C:/Workspaces/BachelorThesis/imu_test/Libraries/XMCLib/inc\xmc_spi.h ****  *
 567:C:/Workspaces/BachelorThesis/imu_test/Libraries/XMCLib/inc\xmc_spi.h ****  * \par<b>Description:</b><br>
 568:C:/Workspaces/BachelorThesis/imu_test/Libraries/XMCLib/inc\xmc_spi.h ****  * Puts the data into FIFO, if FIFO mode is enabled or else into standard buffer, by setting the pr
 569:C:/Workspaces/BachelorThesis/imu_test/Libraries/XMCLib/inc\xmc_spi.h ****  * In Dual and Quad modes,  hardware port control(CCR.HPCEN) mode is enabled. By enabling this the 
 570:C:/Workspaces/BachelorThesis/imu_test/Libraries/XMCLib/inc\xmc_spi.h ****  * pin is updated by hardware itself. TCI(Transmit Control Information) allows dynamic control of b
 571:C:/Workspaces/BachelorThesis/imu_test/Libraries/XMCLib/inc\xmc_spi.h ****  * and pin direction during data transfers by writing to SCTR.DSM and SCTR.HPCDIR bit fields. To su
 572:C:/Workspaces/BachelorThesis/imu_test/Libraries/XMCLib/inc\xmc_spi.h ****  * update, TCSR.HPCMD(Hardware Port control) will be enabled during the initialization using XMC_SP
 573:C:/Workspaces/BachelorThesis/imu_test/Libraries/XMCLib/inc\xmc_spi.h ****  *
 574:C:/Workspaces/BachelorThesis/imu_test/Libraries/XMCLib/inc\xmc_spi.h ****  *
 575:C:/Workspaces/BachelorThesis/imu_test/Libraries/XMCLib/inc\xmc_spi.h ****  * \par<b>Related APIs:</b><BR>
 576:C:/Workspaces/BachelorThesis/imu_test/Libraries/XMCLib/inc\xmc_spi.h ****  * XMC_SPI_CH_Receive()
 577:C:/Workspaces/BachelorThesis/imu_test/Libraries/XMCLib/inc\xmc_spi.h ****  */
 578:C:/Workspaces/BachelorThesis/imu_test/Libraries/XMCLib/inc\xmc_spi.h **** void XMC_SPI_CH_Transmit(XMC_USIC_CH_t *const channel, const uint16_t data, const XMC_SPI_CH_MODE_t
 579:C:/Workspaces/BachelorThesis/imu_test/Libraries/XMCLib/inc\xmc_spi.h **** 
 580:C:/Workspaces/BachelorThesis/imu_test/Libraries/XMCLib/inc\xmc_spi.h **** /**
 581:C:/Workspaces/BachelorThesis/imu_test/Libraries/XMCLib/inc\xmc_spi.h ****  * @param channel A constant pointer to XMC_USIC_CH_t, pointing to the USIC channel base address.
 582:C:/Workspaces/BachelorThesis/imu_test/Libraries/XMCLib/inc\xmc_spi.h ****  * @param mode Communication mode of the SPI, based on this mode TCI(Transmit control information)i
 583:C:/Workspaces/BachelorThesis/imu_test/Libraries/XMCLib/inc\xmc_spi.h ****  *             Refer @ref XMC_SPI_CH_MODE_t for valid values.
 584:C:/Workspaces/BachelorThesis/imu_test/Libraries/XMCLib/inc\xmc_spi.h ****  *
 585:C:/Workspaces/BachelorThesis/imu_test/Libraries/XMCLib/inc\xmc_spi.h ****  * @return None
 586:C:/Workspaces/BachelorThesis/imu_test/Libraries/XMCLib/inc\xmc_spi.h ****  *
 587:C:/Workspaces/BachelorThesis/imu_test/Libraries/XMCLib/inc\xmc_spi.h ****  * \par<b>Description:</b><br>
 588:C:/Workspaces/BachelorThesis/imu_test/Libraries/XMCLib/inc\xmc_spi.h ****  * Transmits a dummy data(FFFFH) to provide clock for slave and receives the data from the slave.\n
 589:C:/Workspaces/BachelorThesis/imu_test/Libraries/XMCLib/inc\xmc_spi.h ****  * XMC_SPI_CH_Receive() receives the data and places it into buffer based on the FIFO selection. Af
 590:C:/Workspaces/BachelorThesis/imu_test/Libraries/XMCLib/inc\xmc_spi.h ****  * XMC_SPI_CH_GetReceivedData() can be invoked to read the data from the buffers.
 591:C:/Workspaces/BachelorThesis/imu_test/Libraries/XMCLib/inc\xmc_spi.h ****  *
 592:C:/Workspaces/BachelorThesis/imu_test/Libraries/XMCLib/inc\xmc_spi.h ****  * \par<b>Related APIs:</b><BR>
 593:C:/Workspaces/BachelorThesis/imu_test/Libraries/XMCLib/inc\xmc_spi.h ****  * XMC_SPI_CH_GetReceivedDaa()
 594:C:/Workspaces/BachelorThesis/imu_test/Libraries/XMCLib/inc\xmc_spi.h ****  */
 595:C:/Workspaces/BachelorThesis/imu_test/Libraries/XMCLib/inc\xmc_spi.h **** __STATIC_INLINE void XMC_SPI_CH_Receive(XMC_USIC_CH_t *const channel, const XMC_SPI_CH_MODE_t mode)
 596:C:/Workspaces/BachelorThesis/imu_test/Libraries/XMCLib/inc\xmc_spi.h **** {
 597:C:/Workspaces/BachelorThesis/imu_test/Libraries/XMCLib/inc\xmc_spi.h ****   /* Transmit dummy data */
 598:C:/Workspaces/BachelorThesis/imu_test/Libraries/XMCLib/inc\xmc_spi.h ****   XMC_SPI_CH_Transmit(channel, (uint16_t)0xffffU, (XMC_SPI_CH_MODE_t)((uint16_t)mode & 0xfffbU));
 599:C:/Workspaces/BachelorThesis/imu_test/Libraries/XMCLib/inc\xmc_spi.h **** }
 600:C:/Workspaces/BachelorThesis/imu_test/Libraries/XMCLib/inc\xmc_spi.h **** 
 601:C:/Workspaces/BachelorThesis/imu_test/Libraries/XMCLib/inc\xmc_spi.h **** /**
 602:C:/Workspaces/BachelorThesis/imu_test/Libraries/XMCLib/inc\xmc_spi.h ****  * @param channel A constant pointer to XMC_USIC_CH_t, pointing to the USIC channel base address.
 603:C:/Workspaces/BachelorThesis/imu_test/Libraries/XMCLib/inc\xmc_spi.h ****  *
 604:C:/Workspaces/BachelorThesis/imu_test/Libraries/XMCLib/inc\xmc_spi.h ****  * @return uint16_t Data read from the receive buffer.
 605:C:/Workspaces/BachelorThesis/imu_test/Libraries/XMCLib/inc\xmc_spi.h ****  *
 606:C:/Workspaces/BachelorThesis/imu_test/Libraries/XMCLib/inc\xmc_spi.h ****  * \par<b>Description:</b><br>
 607:C:/Workspaces/BachelorThesis/imu_test/Libraries/XMCLib/inc\xmc_spi.h ****  * Reads data from the receive buffer based on the FIFO selection.\n\n
 608:C:/Workspaces/BachelorThesis/imu_test/Libraries/XMCLib/inc\xmc_spi.h ****  * Invocation of XMC_SPI_CH_Receive() receives the data and place it into receive buffer. After rec
 609:C:/Workspaces/BachelorThesis/imu_test/Libraries/XMCLib/inc\xmc_spi.h ****  * XMC_SPI_CH_GetReceivedData() can be used to read the data from the buffer.
 610:C:/Workspaces/BachelorThesis/imu_test/Libraries/XMCLib/inc\xmc_spi.h ****  *
 611:C:/Workspaces/BachelorThesis/imu_test/Libraries/XMCLib/inc\xmc_spi.h ****  * \par<b>Related APIs:</b><BR>
 612:C:/Workspaces/BachelorThesis/imu_test/Libraries/XMCLib/inc\xmc_spi.h ****  * XMC_SPI_CH_Receive()
 613:C:/Workspaces/BachelorThesis/imu_test/Libraries/XMCLib/inc\xmc_spi.h ****  */
 614:C:/Workspaces/BachelorThesis/imu_test/Libraries/XMCLib/inc\xmc_spi.h **** uint16_t XMC_SPI_CH_GetReceivedData(XMC_USIC_CH_t *const channel);
 615:C:/Workspaces/BachelorThesis/imu_test/Libraries/XMCLib/inc\xmc_spi.h **** 
 616:C:/Workspaces/BachelorThesis/imu_test/Libraries/XMCLib/inc\xmc_spi.h **** /**
 617:C:/Workspaces/BachelorThesis/imu_test/Libraries/XMCLib/inc\xmc_spi.h ****  * @param channel A constant pointer to XMC_USIC_CH_t, pointing to the USIC channel base address.
 618:C:/Workspaces/BachelorThesis/imu_test/Libraries/XMCLib/inc\xmc_spi.h ****  *
 619:C:/Workspaces/BachelorThesis/imu_test/Libraries/XMCLib/inc\xmc_spi.h ****  * @return None
 620:C:/Workspaces/BachelorThesis/imu_test/Libraries/XMCLib/inc\xmc_spi.h ****  *
 621:C:/Workspaces/BachelorThesis/imu_test/Libraries/XMCLib/inc\xmc_spi.h ****  * \par<b>Description:</b><br>
 622:C:/Workspaces/BachelorThesis/imu_test/Libraries/XMCLib/inc\xmc_spi.h ****  * Set the order of data transfer from LSB to MSB, by clearing SCTR.SDIR bit.\n\n
 623:C:/Workspaces/BachelorThesis/imu_test/Libraries/XMCLib/inc\xmc_spi.h ****  * This is typically based on the slave settings. Invoke XMC_SPI_CH_SetBitOrderLsbFirst() to set di
 624:C:/Workspaces/BachelorThesis/imu_test/Libraries/XMCLib/inc\xmc_spi.h ****  * the program.
 625:C:/Workspaces/BachelorThesis/imu_test/Libraries/XMCLib/inc\xmc_spi.h ****  *
 626:C:/Workspaces/BachelorThesis/imu_test/Libraries/XMCLib/inc\xmc_spi.h ****  * \par<b>Related APIs:</b><BR>
 627:C:/Workspaces/BachelorThesis/imu_test/Libraries/XMCLib/inc\xmc_spi.h ****  * XMC_SPI_CH_SetBitOrderMsbFirst()
 628:C:/Workspaces/BachelorThesis/imu_test/Libraries/XMCLib/inc\xmc_spi.h ****  */
 629:C:/Workspaces/BachelorThesis/imu_test/Libraries/XMCLib/inc\xmc_spi.h **** __STATIC_INLINE void XMC_SPI_CH_SetBitOrderLsbFirst(XMC_USIC_CH_t *const channel)
 630:C:/Workspaces/BachelorThesis/imu_test/Libraries/XMCLib/inc\xmc_spi.h **** {
 631:C:/Workspaces/BachelorThesis/imu_test/Libraries/XMCLib/inc\xmc_spi.h ****   channel->SCTR &= (uint32_t)~USIC_CH_SCTR_SDIR_Msk;
 632:C:/Workspaces/BachelorThesis/imu_test/Libraries/XMCLib/inc\xmc_spi.h **** }
 633:C:/Workspaces/BachelorThesis/imu_test/Libraries/XMCLib/inc\xmc_spi.h **** 
 634:C:/Workspaces/BachelorThesis/imu_test/Libraries/XMCLib/inc\xmc_spi.h **** /**
 635:C:/Workspaces/BachelorThesis/imu_test/Libraries/XMCLib/inc\xmc_spi.h ****  * @param channel A constant pointer to XMC_USIC_CH_t, pointing to the USIC channel base address.
 636:C:/Workspaces/BachelorThesis/imu_test/Libraries/XMCLib/inc\xmc_spi.h ****  *
 637:C:/Workspaces/BachelorThesis/imu_test/Libraries/XMCLib/inc\xmc_spi.h ****  * @return None
 638:C:/Workspaces/BachelorThesis/imu_test/Libraries/XMCLib/inc\xmc_spi.h ****  *
 639:C:/Workspaces/BachelorThesis/imu_test/Libraries/XMCLib/inc\xmc_spi.h ****  * \par<b>Description:</b><br>
 640:C:/Workspaces/BachelorThesis/imu_test/Libraries/XMCLib/inc\xmc_spi.h ****  * Set the order of data transfer from MSB to LSB, by setting SCTR.SDIR bit.\n\n
 641:C:/Workspaces/BachelorThesis/imu_test/Libraries/XMCLib/inc\xmc_spi.h ****  * This is typically based on the slave settings. This is not set during XMC_SPI_CH_Init().
 642:C:/Workspaces/BachelorThesis/imu_test/Libraries/XMCLib/inc\xmc_spi.h ****  * Invoke XMC_SPI_CH_SetBitOrderMsbFirst() to set direction as needed in the program.
 643:C:/Workspaces/BachelorThesis/imu_test/Libraries/XMCLib/inc\xmc_spi.h ****  *
 644:C:/Workspaces/BachelorThesis/imu_test/Libraries/XMCLib/inc\xmc_spi.h ****  * \par<b>Related APIs:</b><BR>
 645:C:/Workspaces/BachelorThesis/imu_test/Libraries/XMCLib/inc\xmc_spi.h ****  * XMC_SPI_CH_SetBitOrderLsbFirst()
 646:C:/Workspaces/BachelorThesis/imu_test/Libraries/XMCLib/inc\xmc_spi.h ****  */
 647:C:/Workspaces/BachelorThesis/imu_test/Libraries/XMCLib/inc\xmc_spi.h **** __STATIC_INLINE void XMC_SPI_CH_SetBitOrderMsbFirst(XMC_USIC_CH_t *const channel)
 648:C:/Workspaces/BachelorThesis/imu_test/Libraries/XMCLib/inc\xmc_spi.h **** {
 649:C:/Workspaces/BachelorThesis/imu_test/Libraries/XMCLib/inc\xmc_spi.h ****   channel->SCTR |= (uint32_t)USIC_CH_SCTR_SDIR_Msk;
 650:C:/Workspaces/BachelorThesis/imu_test/Libraries/XMCLib/inc\xmc_spi.h **** }
 651:C:/Workspaces/BachelorThesis/imu_test/Libraries/XMCLib/inc\xmc_spi.h **** 
 652:C:/Workspaces/BachelorThesis/imu_test/Libraries/XMCLib/inc\xmc_spi.h **** /**
 653:C:/Workspaces/BachelorThesis/imu_test/Libraries/XMCLib/inc\xmc_spi.h ****  * @param channel A constant pointer to XMC_USIC_CH_t, pointing to the USIC channel base address.
 654:C:/Workspaces/BachelorThesis/imu_test/Libraries/XMCLib/inc\xmc_spi.h ****  * @param event Protocol events which have to be enabled.
 655:C:/Workspaces/BachelorThesis/imu_test/Libraries/XMCLib/inc\xmc_spi.h ****  *              Refer @ XMC_SPI_CH_EVENT_t for valid values. <b>OR</b> combinations of these enum i
 656:C:/Workspaces/BachelorThesis/imu_test/Libraries/XMCLib/inc\xmc_spi.h ****  *              as input.
 657:C:/Workspaces/BachelorThesis/imu_test/Libraries/XMCLib/inc\xmc_spi.h ****  *
 658:C:/Workspaces/BachelorThesis/imu_test/Libraries/XMCLib/inc\xmc_spi.h ****  * @return None
 659:C:/Workspaces/BachelorThesis/imu_test/Libraries/XMCLib/inc\xmc_spi.h ****  *
 660:C:/Workspaces/BachelorThesis/imu_test/Libraries/XMCLib/inc\xmc_spi.h ****  * \par<b>Description:</b><br>
 661:C:/Workspaces/BachelorThesis/imu_test/Libraries/XMCLib/inc\xmc_spi.h ****  * Enables the SPI protocol specific events, by configuring PCR register.\n\n
 662:C:/Workspaces/BachelorThesis/imu_test/Libraries/XMCLib/inc\xmc_spi.h ****  * Events can be enabled as needed using XMC_SPI_CH_EnableEvent().
 663:C:/Workspaces/BachelorThesis/imu_test/Libraries/XMCLib/inc\xmc_spi.h ****  * XMC_SPI_CH_DisableEvent() can be used to disable the events.
 664:C:/Workspaces/BachelorThesis/imu_test/Libraries/XMCLib/inc\xmc_spi.h ****  *
 665:C:/Workspaces/BachelorThesis/imu_test/Libraries/XMCLib/inc\xmc_spi.h ****  * \par<b>Related APIs:</b><BR>
 666:C:/Workspaces/BachelorThesis/imu_test/Libraries/XMCLib/inc\xmc_spi.h ****  * XMC_SPI_CH_DisableEvent()
 667:C:/Workspaces/BachelorThesis/imu_test/Libraries/XMCLib/inc\xmc_spi.h ****  */
 668:C:/Workspaces/BachelorThesis/imu_test/Libraries/XMCLib/inc\xmc_spi.h **** void XMC_SPI_CH_EnableEvent(XMC_USIC_CH_t *const channel, const uint32_t event);
 669:C:/Workspaces/BachelorThesis/imu_test/Libraries/XMCLib/inc\xmc_spi.h **** 
 670:C:/Workspaces/BachelorThesis/imu_test/Libraries/XMCLib/inc\xmc_spi.h **** /**
 671:C:/Workspaces/BachelorThesis/imu_test/Libraries/XMCLib/inc\xmc_spi.h ****  * @param channel A constant pointer to XMC_USIC_CH_t, pointing to the USIC channel base address.
 672:C:/Workspaces/BachelorThesis/imu_test/Libraries/XMCLib/inc\xmc_spi.h ****  * @param event Protocol events which have to be disabled.
 673:C:/Workspaces/BachelorThesis/imu_test/Libraries/XMCLib/inc\xmc_spi.h ****  *              Refer @ XMC_SPI_CH_EVENT_t for valid values. <b>OR</b> combinations of these enum i
 674:C:/Workspaces/BachelorThesis/imu_test/Libraries/XMCLib/inc\xmc_spi.h ****  *              as input.
 675:C:/Workspaces/BachelorThesis/imu_test/Libraries/XMCLib/inc\xmc_spi.h ****  *
 676:C:/Workspaces/BachelorThesis/imu_test/Libraries/XMCLib/inc\xmc_spi.h ****  * @return None
 677:C:/Workspaces/BachelorThesis/imu_test/Libraries/XMCLib/inc\xmc_spi.h ****  *
 678:C:/Workspaces/BachelorThesis/imu_test/Libraries/XMCLib/inc\xmc_spi.h ****  * \par<b>Description:</b><br>
 679:C:/Workspaces/BachelorThesis/imu_test/Libraries/XMCLib/inc\xmc_spi.h ****  * Disables the SPI protocol specific events, by configuring PCR register.\n\n
 680:C:/Workspaces/BachelorThesis/imu_test/Libraries/XMCLib/inc\xmc_spi.h ****  * After disabling the events, XMC_SPI_CH_EnableEvent() has to be invoked to re-enable the events.
 681:C:/Workspaces/BachelorThesis/imu_test/Libraries/XMCLib/inc\xmc_spi.h ****  *
 682:C:/Workspaces/BachelorThesis/imu_test/Libraries/XMCLib/inc\xmc_spi.h ****  * \par<b>Related APIs:</b><BR>
 683:C:/Workspaces/BachelorThesis/imu_test/Libraries/XMCLib/inc\xmc_spi.h ****  * XMC_SPI_CH_EnableEvent()
 684:C:/Workspaces/BachelorThesis/imu_test/Libraries/XMCLib/inc\xmc_spi.h ****  */
 685:C:/Workspaces/BachelorThesis/imu_test/Libraries/XMCLib/inc\xmc_spi.h **** void XMC_SPI_CH_DisableEvent(XMC_USIC_CH_t *const channel, const uint32_t event);
 686:C:/Workspaces/BachelorThesis/imu_test/Libraries/XMCLib/inc\xmc_spi.h **** 
 687:C:/Workspaces/BachelorThesis/imu_test/Libraries/XMCLib/inc\xmc_spi.h **** /**
 688:C:/Workspaces/BachelorThesis/imu_test/Libraries/XMCLib/inc\xmc_spi.h ****  * @param channel A constant pointer to XMC_USIC_CH_t, pointing to the USIC channel base address.
 689:C:/Workspaces/BachelorThesis/imu_test/Libraries/XMCLib/inc\xmc_spi.h ****  *
 690:C:/Workspaces/BachelorThesis/imu_test/Libraries/XMCLib/inc\xmc_spi.h ****  * @return uint32_t Status of SPI protocol events.
 691:C:/Workspaces/BachelorThesis/imu_test/Libraries/XMCLib/inc\xmc_spi.h ****  *
 692:C:/Workspaces/BachelorThesis/imu_test/Libraries/XMCLib/inc\xmc_spi.h ****  * \par<b>Description:</b><br>
 693:C:/Workspaces/BachelorThesis/imu_test/Libraries/XMCLib/inc\xmc_spi.h ****  * Returns the status of the events, by reading PSR register.\n\n
 694:C:/Workspaces/BachelorThesis/imu_test/Libraries/XMCLib/inc\xmc_spi.h ****  * This indicates the status of the all the events, for SPI communication.
 695:C:/Workspaces/BachelorThesis/imu_test/Libraries/XMCLib/inc\xmc_spi.h ****  *
 696:C:/Workspaces/BachelorThesis/imu_test/Libraries/XMCLib/inc\xmc_spi.h ****  * \par<b>Related APIs:</b><BR>
 697:C:/Workspaces/BachelorThesis/imu_test/Libraries/XMCLib/inc\xmc_spi.h ****  * XMC_SPI_CH_ClearStatusFlag()
 698:C:/Workspaces/BachelorThesis/imu_test/Libraries/XMCLib/inc\xmc_spi.h ****  */
 699:C:/Workspaces/BachelorThesis/imu_test/Libraries/XMCLib/inc\xmc_spi.h **** __STATIC_INLINE uint32_t XMC_SPI_CH_GetStatusFlag(XMC_USIC_CH_t *const channel)
 700:C:/Workspaces/BachelorThesis/imu_test/Libraries/XMCLib/inc\xmc_spi.h **** {
 299              	 .loc 3 700 0
 300              	 .cfi_startproc
 301              	 
 302              	 
 303              	 
 304 0000 80B4     	 push {r7}
 305              	.LCFI33:
 306              	 .cfi_def_cfa_offset 4
 307              	 .cfi_offset 7,-4
 308 0002 83B0     	 sub sp,sp,#12
 309              	.LCFI34:
 310              	 .cfi_def_cfa_offset 16
 311 0004 00AF     	 add r7,sp,#0
 312              	.LCFI35:
 313              	 .cfi_def_cfa_register 7
 314 0006 7860     	 str r0,[r7,#4]
 701:C:/Workspaces/BachelorThesis/imu_test/Libraries/XMCLib/inc\xmc_spi.h ****   return channel->PSR_SSCMode;
 315              	 .loc 3 701 0
 316 0008 7B68     	 ldr r3,[r7,#4]
 317 000a 9B6C     	 ldr r3,[r3,#72]
 702:C:/Workspaces/BachelorThesis/imu_test/Libraries/XMCLib/inc\xmc_spi.h **** }
 318              	 .loc 3 702 0
 319 000c 1846     	 mov r0,r3
 320 000e 0C37     	 adds r7,r7,#12
 321              	.LCFI36:
 322              	 .cfi_def_cfa_offset 4
 323 0010 BD46     	 mov sp,r7
 324              	.LCFI37:
 325              	 .cfi_def_cfa_register 13
 326              	 
 327 0012 5DF8047B 	 ldr r7,[sp],#4
 328              	.LCFI38:
 329              	 .cfi_restore 7
 330              	 .cfi_def_cfa_offset 0
 331 0016 7047     	 bx lr
 332              	 .cfi_endproc
 333              	.LFE311:
 335              	 .section .text.SPI_MASTER_GetFlagStatus,"ax",%progbits
 336              	 .align 2
 337              	 .thumb
 338              	 .thumb_func
 340              	SPI_MASTER_GetFlagStatus:
 341              	.LFB344:
 342              	 .file 4 "C:/Workspaces/BachelorThesis/imu_test/Dave/Generated/SPI_MASTER/spi_master.h"
   1:C:/Workspaces/BachelorThesis/imu_test/Dave/Generated/SPI_MASTER\spi_master.h **** /**
   2:C:/Workspaces/BachelorThesis/imu_test/Dave/Generated/SPI_MASTER\spi_master.h ****  * @file spi_master.h
   3:C:/Workspaces/BachelorThesis/imu_test/Dave/Generated/SPI_MASTER\spi_master.h ****  * @date 2016-06-20
   4:C:/Workspaces/BachelorThesis/imu_test/Dave/Generated/SPI_MASTER\spi_master.h ****  *
   5:C:/Workspaces/BachelorThesis/imu_test/Dave/Generated/SPI_MASTER\spi_master.h ****  * NOTE:
   6:C:/Workspaces/BachelorThesis/imu_test/Dave/Generated/SPI_MASTER\spi_master.h ****  * This file is generated by DAVE. Any manual modification done to this file will be lost when the 
   7:C:/Workspaces/BachelorThesis/imu_test/Dave/Generated/SPI_MASTER\spi_master.h ****  *
   8:C:/Workspaces/BachelorThesis/imu_test/Dave/Generated/SPI_MASTER\spi_master.h ****  * @cond
   9:C:/Workspaces/BachelorThesis/imu_test/Dave/Generated/SPI_MASTER\spi_master.h ****  **************************************************************************************************
  10:C:/Workspaces/BachelorThesis/imu_test/Dave/Generated/SPI_MASTER\spi_master.h ****  * SPI_MASTER v4.3.30 - Configures the properties of USIC channel to support SPI mode of communicat
  11:C:/Workspaces/BachelorThesis/imu_test/Dave/Generated/SPI_MASTER\spi_master.h ****  *
  12:C:/Workspaces/BachelorThesis/imu_test/Dave/Generated/SPI_MASTER\spi_master.h ****  * Copyright (c) 2015-2020, Infineon Technologies AG
  13:C:/Workspaces/BachelorThesis/imu_test/Dave/Generated/SPI_MASTER\spi_master.h ****  * All rights reserved.
  14:C:/Workspaces/BachelorThesis/imu_test/Dave/Generated/SPI_MASTER\spi_master.h ****  *
  15:C:/Workspaces/BachelorThesis/imu_test/Dave/Generated/SPI_MASTER\spi_master.h ****  * Redistribution and use in source and binary forms, with or without modification,are permitted pr
  16:C:/Workspaces/BachelorThesis/imu_test/Dave/Generated/SPI_MASTER\spi_master.h ****  * following conditions are met:
  17:C:/Workspaces/BachelorThesis/imu_test/Dave/Generated/SPI_MASTER\spi_master.h ****  *
  18:C:/Workspaces/BachelorThesis/imu_test/Dave/Generated/SPI_MASTER\spi_master.h ****  *   Redistributions of source code must retain the above copyright notice, this list of conditions
  19:C:/Workspaces/BachelorThesis/imu_test/Dave/Generated/SPI_MASTER\spi_master.h ****  *   disclaimer.
  20:C:/Workspaces/BachelorThesis/imu_test/Dave/Generated/SPI_MASTER\spi_master.h ****  *
  21:C:/Workspaces/BachelorThesis/imu_test/Dave/Generated/SPI_MASTER\spi_master.h ****  *   Redistributions in binary form must reproduce the above copyright notice, this list of conditi
  22:C:/Workspaces/BachelorThesis/imu_test/Dave/Generated/SPI_MASTER\spi_master.h ****  *   following disclaimer in the documentation and/or other materials provided with the distributio
  23:C:/Workspaces/BachelorThesis/imu_test/Dave/Generated/SPI_MASTER\spi_master.h ****  *
  24:C:/Workspaces/BachelorThesis/imu_test/Dave/Generated/SPI_MASTER\spi_master.h ****  *   Neither the name of the copyright holders nor the names of its contributors may be used to end
  25:C:/Workspaces/BachelorThesis/imu_test/Dave/Generated/SPI_MASTER\spi_master.h ****  *   products derived from this software without specific prior written permission.
  26:C:/Workspaces/BachelorThesis/imu_test/Dave/Generated/SPI_MASTER\spi_master.h ****  *
  27:C:/Workspaces/BachelorThesis/imu_test/Dave/Generated/SPI_MASTER\spi_master.h ****  * THIS SOFTWARE IS PROVIDED BY THE COPYRIGHT HOLDERS AND CONTRIBUTORS "AS IS" AND ANY EXPRESS OR I
  28:C:/Workspaces/BachelorThesis/imu_test/Dave/Generated/SPI_MASTER\spi_master.h ****  * INCLUDING, BUT NOT LIMITED TO, THE IMPLIED WARRANTIES OF MERCHANTABILITY AND FITNESS FOR A PARTI
  29:C:/Workspaces/BachelorThesis/imu_test/Dave/Generated/SPI_MASTER\spi_master.h ****  * DISCLAIMED. IN NO EVENT SHALL THE COPYRIGHT HOLDER OR CONTRIBUTORS BE LIABLE  FOR ANY DIRECT, IN
  30:C:/Workspaces/BachelorThesis/imu_test/Dave/Generated/SPI_MASTER\spi_master.h ****  * SPECIAL, EXEMPLARY, OR CONSEQUENTIAL DAMAGES (INCLUDING, BUT NOT LIMITED TO, PROCUREMENT OF SUBS
  31:C:/Workspaces/BachelorThesis/imu_test/Dave/Generated/SPI_MASTER\spi_master.h ****  * SERVICES; LOSS OF USE, DATA, OR PROFITS; OR BUSINESS INTERRUPTION) HOWEVER CAUSED AND ON ANY THE
  32:C:/Workspaces/BachelorThesis/imu_test/Dave/Generated/SPI_MASTER\spi_master.h ****  * WHETHER IN CONTRACT, STRICT LIABILITY,OR TORT (INCLUDING NEGLIGENCE OR OTHERWISE) ARISING IN ANY
  33:C:/Workspaces/BachelorThesis/imu_test/Dave/Generated/SPI_MASTER\spi_master.h ****  * USE OF THIS SOFTWARE, EVEN IF ADVISED OF THE POSSIBILITY OF SUCH DAMAGE.
  34:C:/Workspaces/BachelorThesis/imu_test/Dave/Generated/SPI_MASTER\spi_master.h ****  *
  35:C:/Workspaces/BachelorThesis/imu_test/Dave/Generated/SPI_MASTER\spi_master.h ****  * To improve the quality of the software, users are encouraged to share modifications, enhancement
  36:C:/Workspaces/BachelorThesis/imu_test/Dave/Generated/SPI_MASTER\spi_master.h ****  * with Infineon Technologies AG (dave@infineon.com).
  37:C:/Workspaces/BachelorThesis/imu_test/Dave/Generated/SPI_MASTER\spi_master.h ****  **************************************************************************************************
  38:C:/Workspaces/BachelorThesis/imu_test/Dave/Generated/SPI_MASTER\spi_master.h ****  *
  39:C:/Workspaces/BachelorThesis/imu_test/Dave/Generated/SPI_MASTER\spi_master.h ****  * Change History
  40:C:/Workspaces/BachelorThesis/imu_test/Dave/Generated/SPI_MASTER\spi_master.h ****  * --------------
  41:C:/Workspaces/BachelorThesis/imu_test/Dave/Generated/SPI_MASTER\spi_master.h ****  *
  42:C:/Workspaces/BachelorThesis/imu_test/Dave/Generated/SPI_MASTER\spi_master.h ****  * 2015-02-16:
  43:C:/Workspaces/BachelorThesis/imu_test/Dave/Generated/SPI_MASTER\spi_master.h ****  *     - Initial version<br>
  44:C:/Workspaces/BachelorThesis/imu_test/Dave/Generated/SPI_MASTER\spi_master.h ****  *
  45:C:/Workspaces/BachelorThesis/imu_test/Dave/Generated/SPI_MASTER\spi_master.h ****  * 2015-02-20:
  46:C:/Workspaces/BachelorThesis/imu_test/Dave/Generated/SPI_MASTER\spi_master.h ****  *     - Added 'SPI_MASTER_INPUT_INVALID' in SPI_MASTER_INPUT_t to support dynamic mode change from
  47:C:/Workspaces/BachelorThesis/imu_test/Dave/Generated/SPI_MASTER\spi_master.h ****  *       as well<br>
  48:C:/Workspaces/BachelorThesis/imu_test/Dave/Generated/SPI_MASTER\spi_master.h ****  *
  49:C:/Workspaces/BachelorThesis/imu_test/Dave/Generated/SPI_MASTER\spi_master.h ****  * 2015-05-08:
  50:C:/Workspaces/BachelorThesis/imu_test/Dave/Generated/SPI_MASTER\spi_master.h ****  *     - SPI_MASTER_SetBaudRate() and SPI_MASTER_Transfer() are added<br>
  51:C:/Workspaces/BachelorThesis/imu_test/Dave/Generated/SPI_MASTER\spi_master.h ****  *     - C++ guard applied to API section only<br>
  52:C:/Workspaces/BachelorThesis/imu_test/Dave/Generated/SPI_MASTER\spi_master.h ****  *     - File guard updated according to the guidelines<br>
  53:C:/Workspaces/BachelorThesis/imu_test/Dave/Generated/SPI_MASTER\spi_master.h ****  *     - "SPI_MASTER_STATUS_BUFFER_INVALID" is added in SPI_MASTER_STATUS_t enum<br>
  54:C:/Workspaces/BachelorThesis/imu_test/Dave/Generated/SPI_MASTER\spi_master.h ****  *     - "leading_trailing_delay" is added in APP config structure<br>
  55:C:/Workspaces/BachelorThesis/imu_test/Dave/Generated/SPI_MASTER\spi_master.h ****  *     - "tx_data_dummy" is added in Dynamic config structure to support SPI_MASTER_Transfer() API<
  56:C:/Workspaces/BachelorThesis/imu_test/Dave/Generated/SPI_MASTER\spi_master.h ****  *     - XMC_ASSERT() are for NULL handle check in inline APIs<br>
  57:C:/Workspaces/BachelorThesis/imu_test/Dave/Generated/SPI_MASTER\spi_master.h ****  *     - SPI_MASTER_lTransmitHandler(), SPI_MASTER_lReceiveHandler(), SPI_MASTER_lProtocolHandler()
  58:C:/Workspaces/BachelorThesis/imu_test/Dave/Generated/SPI_MASTER\spi_master.h ****  *       spi_master_conf.c file<br>
  59:C:/Workspaces/BachelorThesis/imu_test/Dave/Generated/SPI_MASTER\spi_master.h ****  *
  60:C:/Workspaces/BachelorThesis/imu_test/Dave/Generated/SPI_MASTER\spi_master.h ****  * 2015-06-20:
  61:C:/Workspaces/BachelorThesis/imu_test/Dave/Generated/SPI_MASTER\spi_master.h ****  *     - For SPI_MASTER_Transfer(), SPI_MASTER_Receive(), SPI_MASTER_Transmit() APIs, the input dat
  62:C:/Workspaces/BachelorThesis/imu_test/Dave/Generated/SPI_MASTER\spi_master.h ****  *       from 16-bit to 8-bit.
  63:C:/Workspaces/BachelorThesis/imu_test/Dave/Generated/SPI_MASTER\spi_master.h ****  *     - word_length fields is added in SPI_MASTER_DYNAMIC_CONFIG_t, to support runtime change.
  64:C:/Workspaces/BachelorThesis/imu_test/Dave/Generated/SPI_MASTER\spi_master.h ****  *     - Abort API are updated to return the status.
  65:C:/Workspaces/BachelorThesis/imu_test/Dave/Generated/SPI_MASTER\spi_master.h ****  *
  66:C:/Workspaces/BachelorThesis/imu_test/Dave/Generated/SPI_MASTER\spi_master.h ****  * 2015-07-07:
  67:C:/Workspaces/BachelorThesis/imu_test/Dave/Generated/SPI_MASTER\spi_master.h ****  *     - DYNAMIC_CONFIG_t is renamed as RUNTIME_t
  68:C:/Workspaces/BachelorThesis/imu_test/Dave/Generated/SPI_MASTER\spi_master.h ****  *
  69:C:/Workspaces/BachelorThesis/imu_test/Dave/Generated/SPI_MASTER\spi_master.h ****  * 2015-09-30:
  70:C:/Workspaces/BachelorThesis/imu_test/Dave/Generated/SPI_MASTER\spi_master.h ****  *     - New SPI_MASTER_STATUS_MODE_MISMATCH item is added in SPI_MASTER_STATUS_t
  71:C:/Workspaces/BachelorThesis/imu_test/Dave/Generated/SPI_MASTER\spi_master.h ****  *
  72:C:/Workspaces/BachelorThesis/imu_test/Dave/Generated/SPI_MASTER\spi_master.h ****  * 2015-10-08:
  73:C:/Workspaces/BachelorThesis/imu_test/Dave/Generated/SPI_MASTER\spi_master.h ****  *     - SPI_MASTER_DMA_MAXCOUNT is exposed to the user.
  74:C:/Workspaces/BachelorThesis/imu_test/Dave/Generated/SPI_MASTER\spi_master.h ****  *     - dx0_input_half_duplex is added to support while changing the mode to half duplex mode.
  75:C:/Workspaces/BachelorThesis/imu_test/Dave/Generated/SPI_MASTER\spi_master.h ****  *     - SPI_MASTER_IsTxBusy() and SPI_MASTER_IsRxBusy() APIs are added to return the current state
  76:C:/Workspaces/BachelorThesis/imu_test/Dave/Generated/SPI_MASTER\spi_master.h ****  *     - Documentation update.
  77:C:/Workspaces/BachelorThesis/imu_test/Dave/Generated/SPI_MASTER\spi_master.h ****  *
  78:C:/Workspaces/BachelorThesis/imu_test/Dave/Generated/SPI_MASTER\spi_master.h ****  * 2015-10-14:
  79:C:/Workspaces/BachelorThesis/imu_test/Dave/Generated/SPI_MASTER\spi_master.h ****  *     - new variable "spi_master_config_mode" to store the actual mode generated during initialisa
  80:C:/Workspaces/BachelorThesis/imu_test/Dave/Generated/SPI_MASTER\spi_master.h ****  *
  81:C:/Workspaces/BachelorThesis/imu_test/Dave/Generated/SPI_MASTER\spi_master.h ****  * 2016-04-07:
  82:C:/Workspaces/BachelorThesis/imu_test/Dave/Generated/SPI_MASTER\spi_master.h ****  *     - runtime variable are made as volatile.
  83:C:/Workspaces/BachelorThesis/imu_test/Dave/Generated/SPI_MASTER\spi_master.h ****  *
  84:C:/Workspaces/BachelorThesis/imu_test/Dave/Generated/SPI_MASTER\spi_master.h ****  * 2021-01-08:
  85:C:/Workspaces/BachelorThesis/imu_test/Dave/Generated/SPI_MASTER\spi_master.h ****  *     - Modified check for minimum XMCLib version
  86:C:/Workspaces/BachelorThesis/imu_test/Dave/Generated/SPI_MASTER\spi_master.h ****  *
  87:C:/Workspaces/BachelorThesis/imu_test/Dave/Generated/SPI_MASTER\spi_master.h ****  * @endcond
  88:C:/Workspaces/BachelorThesis/imu_test/Dave/Generated/SPI_MASTER\spi_master.h ****  *
  89:C:/Workspaces/BachelorThesis/imu_test/Dave/Generated/SPI_MASTER\spi_master.h ****  */
  90:C:/Workspaces/BachelorThesis/imu_test/Dave/Generated/SPI_MASTER\spi_master.h **** 
  91:C:/Workspaces/BachelorThesis/imu_test/Dave/Generated/SPI_MASTER\spi_master.h **** #ifndef SPI_MASTER_H
  92:C:/Workspaces/BachelorThesis/imu_test/Dave/Generated/SPI_MASTER\spi_master.h **** #define SPI_MASTER_H
  93:C:/Workspaces/BachelorThesis/imu_test/Dave/Generated/SPI_MASTER\spi_master.h **** /**************************************************************************************************
  94:C:/Workspaces/BachelorThesis/imu_test/Dave/Generated/SPI_MASTER\spi_master.h ****  * HEADER FILES
  95:C:/Workspaces/BachelorThesis/imu_test/Dave/Generated/SPI_MASTER\spi_master.h ****  **************************************************************************************************
  96:C:/Workspaces/BachelorThesis/imu_test/Dave/Generated/SPI_MASTER\spi_master.h **** #include "xmc_gpio.h"
  97:C:/Workspaces/BachelorThesis/imu_test/Dave/Generated/SPI_MASTER\spi_master.h **** #include "xmc_scu.h"
  98:C:/Workspaces/BachelorThesis/imu_test/Dave/Generated/SPI_MASTER\spi_master.h **** #include "xmc_spi.h"
  99:C:/Workspaces/BachelorThesis/imu_test/Dave/Generated/SPI_MASTER\spi_master.h **** #include "DAVE_Common.h"
 100:C:/Workspaces/BachelorThesis/imu_test/Dave/Generated/SPI_MASTER\spi_master.h **** #include "spi_master_conf.h"
 101:C:/Workspaces/BachelorThesis/imu_test/Dave/Generated/SPI_MASTER\spi_master.h **** 
 102:C:/Workspaces/BachelorThesis/imu_test/Dave/Generated/SPI_MASTER\spi_master.h **** #if((SPI_MASTER_DMA_TRANSMIT_MODE == 1U) || (SPI_MASTER_DMA_RECEIVE_MODE == 1U))
 103:C:/Workspaces/BachelorThesis/imu_test/Dave/Generated/SPI_MASTER\spi_master.h **** #include "GLOBAL_DMA/global_dma.h"
 104:C:/Workspaces/BachelorThesis/imu_test/Dave/Generated/SPI_MASTER\spi_master.h **** #endif
 105:C:/Workspaces/BachelorThesis/imu_test/Dave/Generated/SPI_MASTER\spi_master.h **** 
 106:C:/Workspaces/BachelorThesis/imu_test/Dave/Generated/SPI_MASTER\spi_master.h **** /**************************************************************************************************
 107:C:/Workspaces/BachelorThesis/imu_test/Dave/Generated/SPI_MASTER\spi_master.h ****  * MACROS
 108:C:/Workspaces/BachelorThesis/imu_test/Dave/Generated/SPI_MASTER\spi_master.h ****  **************************************************************************************************
 109:C:/Workspaces/BachelorThesis/imu_test/Dave/Generated/SPI_MASTER\spi_master.h **** #define SPI_MASTER_XMC_LIB_MAJOR_VERSION 2
 110:C:/Workspaces/BachelorThesis/imu_test/Dave/Generated/SPI_MASTER\spi_master.h **** #define SPI_MASTER_XMC_LIB_MINOR_VERSION 1
 111:C:/Workspaces/BachelorThesis/imu_test/Dave/Generated/SPI_MASTER\spi_master.h **** #define SPI_MASTER_XMC_LIB_PATCH_VERSION 6
 112:C:/Workspaces/BachelorThesis/imu_test/Dave/Generated/SPI_MASTER\spi_master.h **** 
 113:C:/Workspaces/BachelorThesis/imu_test/Dave/Generated/SPI_MASTER\spi_master.h **** #if !((XMC_LIB_MAJOR_VERSION > SPI_MASTER_XMC_LIB_MAJOR_VERSION) ||\
 114:C:/Workspaces/BachelorThesis/imu_test/Dave/Generated/SPI_MASTER\spi_master.h ****       ((XMC_LIB_MAJOR_VERSION == SPI_MASTER_XMC_LIB_MAJOR_VERSION) && (XMC_LIB_MINOR_VERSION > SPI_
 115:C:/Workspaces/BachelorThesis/imu_test/Dave/Generated/SPI_MASTER\spi_master.h ****       ((XMC_LIB_MAJOR_VERSION == SPI_MASTER_XMC_LIB_MAJOR_VERSION) && (XMC_LIB_MINOR_VERSION == SPI
 116:C:/Workspaces/BachelorThesis/imu_test/Dave/Generated/SPI_MASTER\spi_master.h **** #error "SPI_MASTER requires XMC Peripheral Library v2.1.6 or higher"
 117:C:/Workspaces/BachelorThesis/imu_test/Dave/Generated/SPI_MASTER\spi_master.h **** #endif
 118:C:/Workspaces/BachelorThesis/imu_test/Dave/Generated/SPI_MASTER\spi_master.h **** 
 119:C:/Workspaces/BachelorThesis/imu_test/Dave/Generated/SPI_MASTER\spi_master.h **** /*
 120:C:/Workspaces/BachelorThesis/imu_test/Dave/Generated/SPI_MASTER\spi_master.h ****  * @brief Represents the maximum data size for DMA transaction*/
 121:C:/Workspaces/BachelorThesis/imu_test/Dave/Generated/SPI_MASTER\spi_master.h **** #define SPI_MASTER_DMA_MAXCOUNT (4095U)
 122:C:/Workspaces/BachelorThesis/imu_test/Dave/Generated/SPI_MASTER\spi_master.h **** /**************************************************************************************************
 123:C:/Workspaces/BachelorThesis/imu_test/Dave/Generated/SPI_MASTER\spi_master.h ****  * ENUMS
 124:C:/Workspaces/BachelorThesis/imu_test/Dave/Generated/SPI_MASTER\spi_master.h ****  **************************************************************************************************
 125:C:/Workspaces/BachelorThesis/imu_test/Dave/Generated/SPI_MASTER\spi_master.h **** /**
 126:C:/Workspaces/BachelorThesis/imu_test/Dave/Generated/SPI_MASTER\spi_master.h ****  * @ingroup SPI_MASTER_enumerations
 127:C:/Workspaces/BachelorThesis/imu_test/Dave/Generated/SPI_MASTER\spi_master.h ****  * @{
 128:C:/Workspaces/BachelorThesis/imu_test/Dave/Generated/SPI_MASTER\spi_master.h ****  */
 129:C:/Workspaces/BachelorThesis/imu_test/Dave/Generated/SPI_MASTER\spi_master.h **** /**
 130:C:/Workspaces/BachelorThesis/imu_test/Dave/Generated/SPI_MASTER\spi_master.h ****  * @brief Return status of the SPI_MASTER APP
 131:C:/Workspaces/BachelorThesis/imu_test/Dave/Generated/SPI_MASTER\spi_master.h ****  */
 132:C:/Workspaces/BachelorThesis/imu_test/Dave/Generated/SPI_MASTER\spi_master.h **** typedef enum SPI_MASTER_STATUS
 133:C:/Workspaces/BachelorThesis/imu_test/Dave/Generated/SPI_MASTER\spi_master.h **** {
 134:C:/Workspaces/BachelorThesis/imu_test/Dave/Generated/SPI_MASTER\spi_master.h ****   SPI_MASTER_STATUS_SUCCESS = 0U,   /**< Status success */
 135:C:/Workspaces/BachelorThesis/imu_test/Dave/Generated/SPI_MASTER\spi_master.h ****   SPI_MASTER_STATUS_FAILURE,        /**< Status failure */
 136:C:/Workspaces/BachelorThesis/imu_test/Dave/Generated/SPI_MASTER\spi_master.h ****   SPI_MASTER_STATUS_BUSY,           /**< Busy state */
 137:C:/Workspaces/BachelorThesis/imu_test/Dave/Generated/SPI_MASTER\spi_master.h ****   SPI_MASTER_STATUS_BUFFER_INVALID,  /**< If input buffer and length is invalid */
 138:C:/Workspaces/BachelorThesis/imu_test/Dave/Generated/SPI_MASTER\spi_master.h ****   SPI_MASTER_STATUS_MODE_MISMATCH   /**< API invoked by a handle configured with different mode.
 139:C:/Workspaces/BachelorThesis/imu_test/Dave/Generated/SPI_MASTER\spi_master.h ****                                          e.g, If SPI_MASTER_StartTransmitDMA is invoked for an inst
 140:C:/Workspaces/BachelorThesis/imu_test/Dave/Generated/SPI_MASTER\spi_master.h ****                                          which has transmit mode configured as "Interrupt", will
 141:C:/Workspaces/BachelorThesis/imu_test/Dave/Generated/SPI_MASTER\spi_master.h ****                                          return this status.*/
 142:C:/Workspaces/BachelorThesis/imu_test/Dave/Generated/SPI_MASTER\spi_master.h **** } SPI_MASTER_STATUS_t;
 143:C:/Workspaces/BachelorThesis/imu_test/Dave/Generated/SPI_MASTER\spi_master.h **** 
 144:C:/Workspaces/BachelorThesis/imu_test/Dave/Generated/SPI_MASTER\spi_master.h **** /**
 145:C:/Workspaces/BachelorThesis/imu_test/Dave/Generated/SPI_MASTER\spi_master.h ****  * @brief Service ID for Transmit, Receive and Parity events
 146:C:/Workspaces/BachelorThesis/imu_test/Dave/Generated/SPI_MASTER\spi_master.h ****  */
 147:C:/Workspaces/BachelorThesis/imu_test/Dave/Generated/SPI_MASTER\spi_master.h **** typedef enum SPI_MASTER_SR_ID
 148:C:/Workspaces/BachelorThesis/imu_test/Dave/Generated/SPI_MASTER\spi_master.h **** {
 149:C:/Workspaces/BachelorThesis/imu_test/Dave/Generated/SPI_MASTER\spi_master.h ****   SPI_MASTER_SR_ID_0 = 0U, /**< SR-0 */
 150:C:/Workspaces/BachelorThesis/imu_test/Dave/Generated/SPI_MASTER\spi_master.h ****   SPI_MASTER_SR_ID_1,      /**< SR-1 */
 151:C:/Workspaces/BachelorThesis/imu_test/Dave/Generated/SPI_MASTER\spi_master.h ****   SPI_MASTER_SR_ID_2,      /**< SR-2 */
 152:C:/Workspaces/BachelorThesis/imu_test/Dave/Generated/SPI_MASTER\spi_master.h ****   SPI_MASTER_SR_ID_3,      /**< SR-3 */
 153:C:/Workspaces/BachelorThesis/imu_test/Dave/Generated/SPI_MASTER\spi_master.h ****   SPI_MASTER_SR_ID_4,      /**< SR-4 */
 154:C:/Workspaces/BachelorThesis/imu_test/Dave/Generated/SPI_MASTER\spi_master.h ****   SPI_MASTER_SR_ID_5       /**< SR-5 */
 155:C:/Workspaces/BachelorThesis/imu_test/Dave/Generated/SPI_MASTER\spi_master.h **** } SPI_MASTER_SR_ID_t;
 156:C:/Workspaces/BachelorThesis/imu_test/Dave/Generated/SPI_MASTER\spi_master.h **** 
 157:C:/Workspaces/BachelorThesis/imu_test/Dave/Generated/SPI_MASTER\spi_master.h **** /**
 158:C:/Workspaces/BachelorThesis/imu_test/Dave/Generated/SPI_MASTER\spi_master.h ****  * @brief Slave select signals
 159:C:/Workspaces/BachelorThesis/imu_test/Dave/Generated/SPI_MASTER\spi_master.h ****  */
 160:C:/Workspaces/BachelorThesis/imu_test/Dave/Generated/SPI_MASTER\spi_master.h **** typedef enum SPI_MASTER_SS_SIGNAL
 161:C:/Workspaces/BachelorThesis/imu_test/Dave/Generated/SPI_MASTER\spi_master.h **** {
 162:C:/Workspaces/BachelorThesis/imu_test/Dave/Generated/SPI_MASTER\spi_master.h ****   SPI_MASTER_SS_SIGNAL_0 = 0U, /**< Slave select 0 */
 163:C:/Workspaces/BachelorThesis/imu_test/Dave/Generated/SPI_MASTER\spi_master.h ****   SPI_MASTER_SS_SIGNAL_1,      /**< Slave select 1 */
 164:C:/Workspaces/BachelorThesis/imu_test/Dave/Generated/SPI_MASTER\spi_master.h ****   SPI_MASTER_SS_SIGNAL_2,      /**< Slave select 2 */
 165:C:/Workspaces/BachelorThesis/imu_test/Dave/Generated/SPI_MASTER\spi_master.h ****   SPI_MASTER_SS_SIGNAL_3,      /**< Slave select 3 */
 166:C:/Workspaces/BachelorThesis/imu_test/Dave/Generated/SPI_MASTER\spi_master.h ****   SPI_MASTER_SS_SIGNAL_4,      /**< Slave select 4 */
 167:C:/Workspaces/BachelorThesis/imu_test/Dave/Generated/SPI_MASTER\spi_master.h ****   SPI_MASTER_SS_SIGNAL_5,      /**< Slave select 5 */
 168:C:/Workspaces/BachelorThesis/imu_test/Dave/Generated/SPI_MASTER\spi_master.h ****   SPI_MASTER_SS_SIGNAL_6,      /**< Slave select 6 */
 169:C:/Workspaces/BachelorThesis/imu_test/Dave/Generated/SPI_MASTER\spi_master.h ****   SPI_MASTER_SS_SIGNAL_7       /**< Slave select 7 */
 170:C:/Workspaces/BachelorThesis/imu_test/Dave/Generated/SPI_MASTER\spi_master.h **** } SPI_MASTER_SS_SIGNAL_t;
 171:C:/Workspaces/BachelorThesis/imu_test/Dave/Generated/SPI_MASTER\spi_master.h **** 
 172:C:/Workspaces/BachelorThesis/imu_test/Dave/Generated/SPI_MASTER\spi_master.h **** /**
 173:C:/Workspaces/BachelorThesis/imu_test/Dave/Generated/SPI_MASTER\spi_master.h ****  * @brief Enum type which defines Receive input list
 174:C:/Workspaces/BachelorThesis/imu_test/Dave/Generated/SPI_MASTER\spi_master.h ****  */
 175:C:/Workspaces/BachelorThesis/imu_test/Dave/Generated/SPI_MASTER\spi_master.h **** typedef enum SPI_MASTER_INPUT
 176:C:/Workspaces/BachelorThesis/imu_test/Dave/Generated/SPI_MASTER\spi_master.h **** {
 177:C:/Workspaces/BachelorThesis/imu_test/Dave/Generated/SPI_MASTER\spi_master.h ****   SPI_MASTER_INPUT_A = 0U, /**< Input-A */
 178:C:/Workspaces/BachelorThesis/imu_test/Dave/Generated/SPI_MASTER\spi_master.h ****   SPI_MASTER_INPUT_B,      /**< Input-B */
 179:C:/Workspaces/BachelorThesis/imu_test/Dave/Generated/SPI_MASTER\spi_master.h ****   SPI_MASTER_INPUT_C,      /**< Input-C */
 180:C:/Workspaces/BachelorThesis/imu_test/Dave/Generated/SPI_MASTER\spi_master.h ****   SPI_MASTER_INPUT_D,      /**< Input-D */
 181:C:/Workspaces/BachelorThesis/imu_test/Dave/Generated/SPI_MASTER\spi_master.h ****   SPI_MASTER_INPUT_E,      /**< Input-E */
 182:C:/Workspaces/BachelorThesis/imu_test/Dave/Generated/SPI_MASTER\spi_master.h ****   SPI_MASTER_INPUT_F,      /**< Input-F */
 183:C:/Workspaces/BachelorThesis/imu_test/Dave/Generated/SPI_MASTER\spi_master.h ****   SPI_MASTER_INPUT_G,      /**< Input-G */
 184:C:/Workspaces/BachelorThesis/imu_test/Dave/Generated/SPI_MASTER\spi_master.h ****   SPI_MASTER_INPUT_INVALID /**< This is to check during mode switch */
 185:C:/Workspaces/BachelorThesis/imu_test/Dave/Generated/SPI_MASTER\spi_master.h **** } SPI_MASTER_INPUT_t;
 186:C:/Workspaces/BachelorThesis/imu_test/Dave/Generated/SPI_MASTER\spi_master.h **** 
 187:C:/Workspaces/BachelorThesis/imu_test/Dave/Generated/SPI_MASTER\spi_master.h **** /**
 188:C:/Workspaces/BachelorThesis/imu_test/Dave/Generated/SPI_MASTER\spi_master.h ****  * @brief Enum used to identify the transfer type used for either transmit or receive function.
 189:C:/Workspaces/BachelorThesis/imu_test/Dave/Generated/SPI_MASTER\spi_master.h ****  */
 190:C:/Workspaces/BachelorThesis/imu_test/Dave/Generated/SPI_MASTER\spi_master.h **** typedef enum SPI_MASTER_TRANSFER_MODE
 191:C:/Workspaces/BachelorThesis/imu_test/Dave/Generated/SPI_MASTER\spi_master.h **** {
 192:C:/Workspaces/BachelorThesis/imu_test/Dave/Generated/SPI_MASTER\spi_master.h ****   SPI_MASTER_TRANSFER_MODE_INTERRUPT,  /**< Implement data transmit or receive using interrupts */
 193:C:/Workspaces/BachelorThesis/imu_test/Dave/Generated/SPI_MASTER\spi_master.h ****   SPI_MASTER_TRANSFER_MODE_DMA,        /**< Implement data transmit or receive using DMA */
 194:C:/Workspaces/BachelorThesis/imu_test/Dave/Generated/SPI_MASTER\spi_master.h ****   SPI_MASTER_TRANSFER_MODE_DIRECT      /**< This configuration exposes signals for external APP con
 195:C:/Workspaces/BachelorThesis/imu_test/Dave/Generated/SPI_MASTER\spi_master.h **** } SPI_MASTER_TRANSFER_MODE_t;
 196:C:/Workspaces/BachelorThesis/imu_test/Dave/Generated/SPI_MASTER\spi_master.h **** /**
 197:C:/Workspaces/BachelorThesis/imu_test/Dave/Generated/SPI_MASTER\spi_master.h ****  * @}
 198:C:/Workspaces/BachelorThesis/imu_test/Dave/Generated/SPI_MASTER\spi_master.h ****  */
 199:C:/Workspaces/BachelorThesis/imu_test/Dave/Generated/SPI_MASTER\spi_master.h **** 
 200:C:/Workspaces/BachelorThesis/imu_test/Dave/Generated/SPI_MASTER\spi_master.h **** typedef void (*SPI_MASTER_functionhandler)(void);
 201:C:/Workspaces/BachelorThesis/imu_test/Dave/Generated/SPI_MASTER\spi_master.h **** typedef SPI_MASTER_STATUS_t (*SPI_MASTER_lInit_functionhandler)(void);
 202:C:/Workspaces/BachelorThesis/imu_test/Dave/Generated/SPI_MASTER\spi_master.h **** 
 203:C:/Workspaces/BachelorThesis/imu_test/Dave/Generated/SPI_MASTER\spi_master.h **** /**************************************************************************************************
 204:C:/Workspaces/BachelorThesis/imu_test/Dave/Generated/SPI_MASTER\spi_master.h **** * DATA STRUCTURES
 205:C:/Workspaces/BachelorThesis/imu_test/Dave/Generated/SPI_MASTER\spi_master.h **** ***************************************************************************************************
 206:C:/Workspaces/BachelorThesis/imu_test/Dave/Generated/SPI_MASTER\spi_master.h **** /**
 207:C:/Workspaces/BachelorThesis/imu_test/Dave/Generated/SPI_MASTER\spi_master.h **** * @ingroup SPI_MASTER_datastructures
 208:C:/Workspaces/BachelorThesis/imu_test/Dave/Generated/SPI_MASTER\spi_master.h **** * @{
 209:C:/Workspaces/BachelorThesis/imu_test/Dave/Generated/SPI_MASTER\spi_master.h **** */
 210:C:/Workspaces/BachelorThesis/imu_test/Dave/Generated/SPI_MASTER\spi_master.h **** 
 211:C:/Workspaces/BachelorThesis/imu_test/Dave/Generated/SPI_MASTER\spi_master.h **** /**
 212:C:/Workspaces/BachelorThesis/imu_test/Dave/Generated/SPI_MASTER\spi_master.h ****  * @brief Port pin selection for communication
 213:C:/Workspaces/BachelorThesis/imu_test/Dave/Generated/SPI_MASTER\spi_master.h ****  */
 214:C:/Workspaces/BachelorThesis/imu_test/Dave/Generated/SPI_MASTER\spi_master.h **** typedef struct SPI_MASTER_GPIO
 215:C:/Workspaces/BachelorThesis/imu_test/Dave/Generated/SPI_MASTER\spi_master.h **** {
 216:C:/Workspaces/BachelorThesis/imu_test/Dave/Generated/SPI_MASTER\spi_master.h ****   XMC_GPIO_PORT_t* port;  /**< Reference to the port configuration */
 217:C:/Workspaces/BachelorThesis/imu_test/Dave/Generated/SPI_MASTER\spi_master.h ****   uint8_t pin;  /**< Selected pin */
 218:C:/Workspaces/BachelorThesis/imu_test/Dave/Generated/SPI_MASTER\spi_master.h **** } SPI_MASTER_GPIO_t;
 219:C:/Workspaces/BachelorThesis/imu_test/Dave/Generated/SPI_MASTER\spi_master.h **** 
 220:C:/Workspaces/BachelorThesis/imu_test/Dave/Generated/SPI_MASTER\spi_master.h **** /**
 221:C:/Workspaces/BachelorThesis/imu_test/Dave/Generated/SPI_MASTER\spi_master.h ****  * @brief Pin configuration for the selected pins
 222:C:/Workspaces/BachelorThesis/imu_test/Dave/Generated/SPI_MASTER\spi_master.h ****  */
 223:C:/Workspaces/BachelorThesis/imu_test/Dave/Generated/SPI_MASTER\spi_master.h **** typedef struct SPI_MASTER_GPIO_CONFIG
 224:C:/Workspaces/BachelorThesis/imu_test/Dave/Generated/SPI_MASTER\spi_master.h **** {
 225:C:/Workspaces/BachelorThesis/imu_test/Dave/Generated/SPI_MASTER\spi_master.h ****   XMC_GPIO_CONFIG_t port_config;  /**< Properties of the port pin */
 226:C:/Workspaces/BachelorThesis/imu_test/Dave/Generated/SPI_MASTER\spi_master.h ****   XMC_GPIO_HWCTRL_t hw_control;  /**<  hardware control characteristics of the pin */
 227:C:/Workspaces/BachelorThesis/imu_test/Dave/Generated/SPI_MASTER\spi_master.h ****   XMC_SPI_CH_SLAVE_SELECT_t slave_select_ch;  /**<  Indicates the mapped slave select line  */
 228:C:/Workspaces/BachelorThesis/imu_test/Dave/Generated/SPI_MASTER\spi_master.h **** } SPI_MASTER_GPIO_CONFIG_t;
 229:C:/Workspaces/BachelorThesis/imu_test/Dave/Generated/SPI_MASTER\spi_master.h **** 
 230:C:/Workspaces/BachelorThesis/imu_test/Dave/Generated/SPI_MASTER\spi_master.h **** /**
 231:C:/Workspaces/BachelorThesis/imu_test/Dave/Generated/SPI_MASTER\spi_master.h ****  * @brief Configuration parameters of SPI_MASTER APP
 232:C:/Workspaces/BachelorThesis/imu_test/Dave/Generated/SPI_MASTER\spi_master.h ****  */
 233:C:/Workspaces/BachelorThesis/imu_test/Dave/Generated/SPI_MASTER\spi_master.h ****  typedef struct SPI_MASTER_CONFIG
 234:C:/Workspaces/BachelorThesis/imu_test/Dave/Generated/SPI_MASTER\spi_master.h **** {
 235:C:/Workspaces/BachelorThesis/imu_test/Dave/Generated/SPI_MASTER\spi_master.h ****   XMC_SPI_CH_CONFIG_t * const channel_config;         /**< Reference to SPI configuration structure
 236:C:/Workspaces/BachelorThesis/imu_test/Dave/Generated/SPI_MASTER\spi_master.h ****   SPI_MASTER_lInit_functionhandler fptr_spi_master_config;  /**< Function pointer to configure the 
 237:C:/Workspaces/BachelorThesis/imu_test/Dave/Generated/SPI_MASTER\spi_master.h **** 
 238:C:/Workspaces/BachelorThesis/imu_test/Dave/Generated/SPI_MASTER\spi_master.h ****   /* Port configuration */
 239:C:/Workspaces/BachelorThesis/imu_test/Dave/Generated/SPI_MASTER\spi_master.h ****   const SPI_MASTER_GPIO_t* const mosi_0_pin;               /**< Reference to mosi 0 pin */
 240:C:/Workspaces/BachelorThesis/imu_test/Dave/Generated/SPI_MASTER\spi_master.h ****   const SPI_MASTER_GPIO_CONFIG_t* const mosi_0_pin_config; /**< Reference to mosi 0 pin configurati
 241:C:/Workspaces/BachelorThesis/imu_test/Dave/Generated/SPI_MASTER\spi_master.h ****   const SPI_MASTER_GPIO_t* const mosi_1_pin;               /**< Reference to mosi 1 pin */
 242:C:/Workspaces/BachelorThesis/imu_test/Dave/Generated/SPI_MASTER\spi_master.h ****   const SPI_MASTER_GPIO_CONFIG_t* const mosi_1_pin_config; /**< Reference to mosi 1 pin configurati
 243:C:/Workspaces/BachelorThesis/imu_test/Dave/Generated/SPI_MASTER\spi_master.h ****   const SPI_MASTER_GPIO_t* const mosi_2_pin;               /**< Reference to mosi 2 pin */
 244:C:/Workspaces/BachelorThesis/imu_test/Dave/Generated/SPI_MASTER\spi_master.h ****   const SPI_MASTER_GPIO_CONFIG_t* const mosi_2_pin_config; /**< Reference to mosi 2 pin configurati
 245:C:/Workspaces/BachelorThesis/imu_test/Dave/Generated/SPI_MASTER\spi_master.h ****   const SPI_MASTER_GPIO_t* const mosi_3_pin;               /**< Reference to mosi 3 pin */
 246:C:/Workspaces/BachelorThesis/imu_test/Dave/Generated/SPI_MASTER\spi_master.h ****   const SPI_MASTER_GPIO_CONFIG_t* const mosi_3_pin_config; /**< Reference to mosi 3 pin configurati
 247:C:/Workspaces/BachelorThesis/imu_test/Dave/Generated/SPI_MASTER\spi_master.h ****   const SPI_MASTER_GPIO_t* const sclk_out_pin;             /**< Reference to sclk out pin */
 248:C:/Workspaces/BachelorThesis/imu_test/Dave/Generated/SPI_MASTER\spi_master.h ****   const SPI_MASTER_GPIO_CONFIG_t* const sclk_out_pin_config;/**< Reference to shift clock pin confi
 249:C:/Workspaces/BachelorThesis/imu_test/Dave/Generated/SPI_MASTER\spi_master.h ****   const SPI_MASTER_GPIO_t* const slave_select_pin[8];      /**< Reference to slave select pin */
 250:C:/Workspaces/BachelorThesis/imu_test/Dave/Generated/SPI_MASTER\spi_master.h ****   const SPI_MASTER_GPIO_CONFIG_t* const slave_select_pin_config[8]; /**< Reference to slave select 
 251:C:/Workspaces/BachelorThesis/imu_test/Dave/Generated/SPI_MASTER\spi_master.h ****   SPI_MASTER_functionhandler tx_cbhandler;            /**< callback handler for end of transmission
 252:C:/Workspaces/BachelorThesis/imu_test/Dave/Generated/SPI_MASTER\spi_master.h ****   SPI_MASTER_functionhandler rx_cbhandler;            /**< callback handler for end of reception */
 253:C:/Workspaces/BachelorThesis/imu_test/Dave/Generated/SPI_MASTER\spi_master.h ****   SPI_MASTER_functionhandler parity_cbhandler;        /**< callback handler for end of parity error
 254:C:/Workspaces/BachelorThesis/imu_test/Dave/Generated/SPI_MASTER\spi_master.h ****   /* FIFO configuration */
 255:C:/Workspaces/BachelorThesis/imu_test/Dave/Generated/SPI_MASTER\spi_master.h ****   XMC_USIC_CH_FIFO_SIZE_t tx_fifo_size;               /**< Number of FIFO entries assigned to the t
 256:C:/Workspaces/BachelorThesis/imu_test/Dave/Generated/SPI_MASTER\spi_master.h ****   XMC_USIC_CH_FIFO_SIZE_t rx_fifo_size;               /**< Number of FIFO entries assigned to the r
 257:C:/Workspaces/BachelorThesis/imu_test/Dave/Generated/SPI_MASTER\spi_master.h **** 
 258:C:/Workspaces/BachelorThesis/imu_test/Dave/Generated/SPI_MASTER\spi_master.h ****   /* Clock Settings */
 259:C:/Workspaces/BachelorThesis/imu_test/Dave/Generated/SPI_MASTER\spi_master.h ****   XMC_SPI_CH_BRG_SHIFT_CLOCK_PASSIVE_LEVEL_t shift_clk_passive_level; /**< Baudrate Generator shift
 260:C:/Workspaces/BachelorThesis/imu_test/Dave/Generated/SPI_MASTER\spi_master.h ****   SPI_MASTER_TRANSFER_MODE_t transmit_mode;           /**< Indicates how the transmit mode is being
 261:C:/Workspaces/BachelorThesis/imu_test/Dave/Generated/SPI_MASTER\spi_master.h ****   SPI_MASTER_TRANSFER_MODE_t receive_mode;            /**< Indicates how the receive mode is being 
 262:C:/Workspaces/BachelorThesis/imu_test/Dave/Generated/SPI_MASTER\spi_master.h ****   XMC_SPI_CH_MODE_t  spi_master_config_mode;          /**< Defines the SPI transmit mode being used
 263:C:/Workspaces/BachelorThesis/imu_test/Dave/Generated/SPI_MASTER\spi_master.h ****   uint8_t slave_select_lines;                         /**< Number of slave select lines being used 
 264:C:/Workspaces/BachelorThesis/imu_test/Dave/Generated/SPI_MASTER\spi_master.h ****   uint8_t leading_trailing_delay;                     /**< Delay before and after each frame in ter
 265:C:/Workspaces/BachelorThesis/imu_test/Dave/Generated/SPI_MASTER\spi_master.h ****   SPI_MASTER_SR_ID_t tx_sr;                           /**< Service request number assigned to trans
 266:C:/Workspaces/BachelorThesis/imu_test/Dave/Generated/SPI_MASTER\spi_master.h ****   SPI_MASTER_SR_ID_t rx_sr;                           /**< Service request number assigned to recei
 267:C:/Workspaces/BachelorThesis/imu_test/Dave/Generated/SPI_MASTER\spi_master.h ****   SPI_MASTER_SR_ID_t parity_sr;                       /**< Service request number assigned to recei
 268:C:/Workspaces/BachelorThesis/imu_test/Dave/Generated/SPI_MASTER\spi_master.h **** } SPI_MASTER_CONFIG_t;
 269:C:/Workspaces/BachelorThesis/imu_test/Dave/Generated/SPI_MASTER\spi_master.h **** 
 270:C:/Workspaces/BachelorThesis/imu_test/Dave/Generated/SPI_MASTER\spi_master.h **** /**
 271:C:/Workspaces/BachelorThesis/imu_test/Dave/Generated/SPI_MASTER\spi_master.h ****  * @brief Structure to hold the dynamic variables for the SPI_MASTER communication.
 272:C:/Workspaces/BachelorThesis/imu_test/Dave/Generated/SPI_MASTER\spi_master.h ****  */
 273:C:/Workspaces/BachelorThesis/imu_test/Dave/Generated/SPI_MASTER\spi_master.h **** typedef struct SPI_MASTER_RUNTIME
 274:C:/Workspaces/BachelorThesis/imu_test/Dave/Generated/SPI_MASTER\spi_master.h **** {
 275:C:/Workspaces/BachelorThesis/imu_test/Dave/Generated/SPI_MASTER\spi_master.h ****   uint32_t word_length;                              /**< Indicates the length of the data word */
 276:C:/Workspaces/BachelorThesis/imu_test/Dave/Generated/SPI_MASTER\spi_master.h ****   uint32_t tx_data_count;                            /**< Number of bytes of data to be transmitted
 277:C:/Workspaces/BachelorThesis/imu_test/Dave/Generated/SPI_MASTER\spi_master.h ****   volatile uint32_t tx_data_index;                   /**< Index to the byte to be transmitted next 
 278:C:/Workspaces/BachelorThesis/imu_test/Dave/Generated/SPI_MASTER\spi_master.h ****                                                           buffer */
 279:C:/Workspaces/BachelorThesis/imu_test/Dave/Generated/SPI_MASTER\spi_master.h ****   uint32_t rx_data_count;                            /**< Number of bytes of data to be received*/
 280:C:/Workspaces/BachelorThesis/imu_test/Dave/Generated/SPI_MASTER\spi_master.h ****   volatile uint32_t rx_data_index;                   /**< Indicates the number of bytes currently a
 281:C:/Workspaces/BachelorThesis/imu_test/Dave/Generated/SPI_MASTER\spi_master.h ****                                                           rx_data buffer */
 282:C:/Workspaces/BachelorThesis/imu_test/Dave/Generated/SPI_MASTER\spi_master.h ****   uint8_t* rx_data;                                  /**< Pointer to the receive data buffer*/
 283:C:/Workspaces/BachelorThesis/imu_test/Dave/Generated/SPI_MASTER\spi_master.h ****   uint8_t* tx_data;                                  /**< Pointer to the transmit data buffer*/
 284:C:/Workspaces/BachelorThesis/imu_test/Dave/Generated/SPI_MASTER\spi_master.h ****   volatile XMC_SPI_CH_MODE_t  spi_master_mode;       /**< Defines the SPI transmit mode being used 
 285:C:/Workspaces/BachelorThesis/imu_test/Dave/Generated/SPI_MASTER\spi_master.h ****   SPI_MASTER_INPUT_t dx0_input;                      /**< DX0 input channel used for Rx input, This
 286:C:/Workspaces/BachelorThesis/imu_test/Dave/Generated/SPI_MASTER\spi_master.h ****                                                           mode is changed to full duplex mode */
 287:C:/Workspaces/BachelorThesis/imu_test/Dave/Generated/SPI_MASTER\spi_master.h ****   SPI_MASTER_INPUT_t dx0_input_half_duplex;          /**< DX0 input channel used for Rx input, This
 288:C:/Workspaces/BachelorThesis/imu_test/Dave/Generated/SPI_MASTER\spi_master.h ****                                                           mode is changed to half duplex mode */
 289:C:/Workspaces/BachelorThesis/imu_test/Dave/Generated/SPI_MASTER\spi_master.h ****   volatile bool  rx_busy;                            /**< Status flag to indicate busy when a recep
 290:C:/Workspaces/BachelorThesis/imu_test/Dave/Generated/SPI_MASTER\spi_master.h ****   volatile bool  tx_busy;                            /**< Status flag to indicate busy when a trans
 291:C:/Workspaces/BachelorThesis/imu_test/Dave/Generated/SPI_MASTER\spi_master.h ****   volatile bool  tx_data_dummy;                      /**< Status flag to indicate, dummy data is be
 292:C:/Workspaces/BachelorThesis/imu_test/Dave/Generated/SPI_MASTER\spi_master.h ****   volatile bool  rx_data_dummy;                      /**< Status flag to indicate, receive data has
 293:C:/Workspaces/BachelorThesis/imu_test/Dave/Generated/SPI_MASTER\spi_master.h ****                                                           not */
 294:C:/Workspaces/BachelorThesis/imu_test/Dave/Generated/SPI_MASTER\spi_master.h ****  } SPI_MASTER_RUNTIME_t;
 295:C:/Workspaces/BachelorThesis/imu_test/Dave/Generated/SPI_MASTER\spi_master.h **** 
 296:C:/Workspaces/BachelorThesis/imu_test/Dave/Generated/SPI_MASTER\spi_master.h **** 
 297:C:/Workspaces/BachelorThesis/imu_test/Dave/Generated/SPI_MASTER\spi_master.h **** /**
 298:C:/Workspaces/BachelorThesis/imu_test/Dave/Generated/SPI_MASTER\spi_master.h ****  * @brief Initialization parameters of SPI_MASTER APP
 299:C:/Workspaces/BachelorThesis/imu_test/Dave/Generated/SPI_MASTER\spi_master.h ****  */
 300:C:/Workspaces/BachelorThesis/imu_test/Dave/Generated/SPI_MASTER\spi_master.h **** typedef struct SPI_MASTER
 301:C:/Workspaces/BachelorThesis/imu_test/Dave/Generated/SPI_MASTER\spi_master.h **** {
 302:C:/Workspaces/BachelorThesis/imu_test/Dave/Generated/SPI_MASTER\spi_master.h ****   XMC_USIC_CH_t* const channel; /**< Reference to SPI channel */
 303:C:/Workspaces/BachelorThesis/imu_test/Dave/Generated/SPI_MASTER\spi_master.h ****   const SPI_MASTER_CONFIG_t * const config; /**< Reference to the SPI_MASTER configuration structur
 304:C:/Workspaces/BachelorThesis/imu_test/Dave/Generated/SPI_MASTER\spi_master.h ****   SPI_MASTER_RUNTIME_t * const runtime;  /**< Reference to SPI_MASTER dynamic configuration structu
 305:C:/Workspaces/BachelorThesis/imu_test/Dave/Generated/SPI_MASTER\spi_master.h **** #if ((SPI_MASTER_DMA_TRANSMIT_MODE == 1U) || (SPI_MASTER_DMA_RECEIVE_MODE == 1U))
 306:C:/Workspaces/BachelorThesis/imu_test/Dave/Generated/SPI_MASTER\spi_master.h ****   const GLOBAL_DMA_t * const global_dma;
 307:C:/Workspaces/BachelorThesis/imu_test/Dave/Generated/SPI_MASTER\spi_master.h **** #endif
 308:C:/Workspaces/BachelorThesis/imu_test/Dave/Generated/SPI_MASTER\spi_master.h **** #if (SPI_MASTER_DMA_TRANSMIT_MODE == 1U)
 309:C:/Workspaces/BachelorThesis/imu_test/Dave/Generated/SPI_MASTER\spi_master.h ****   const XMC_DMA_CH_CONFIG_t * const dma_ch_tx_config; /**< Reference to the DMA configuration struc
 310:C:/Workspaces/BachelorThesis/imu_test/Dave/Generated/SPI_MASTER\spi_master.h **** #endif
 311:C:/Workspaces/BachelorThesis/imu_test/Dave/Generated/SPI_MASTER\spi_master.h **** #if (SPI_MASTER_DMA_RECEIVE_MODE == 1U)
 312:C:/Workspaces/BachelorThesis/imu_test/Dave/Generated/SPI_MASTER\spi_master.h ****   const XMC_DMA_CH_CONFIG_t * const dma_ch_rx_config; /**< Reference to the DMA configuration struc
 313:C:/Workspaces/BachelorThesis/imu_test/Dave/Generated/SPI_MASTER\spi_master.h ****   const GLOBAL_DMA_t * const global_dma_rx;
 314:C:/Workspaces/BachelorThesis/imu_test/Dave/Generated/SPI_MASTER\spi_master.h ****   const uint8_t dma_ch_rx_number;
 315:C:/Workspaces/BachelorThesis/imu_test/Dave/Generated/SPI_MASTER\spi_master.h **** #endif
 316:C:/Workspaces/BachelorThesis/imu_test/Dave/Generated/SPI_MASTER\spi_master.h **** #if (SPI_MASTER_DMA_TRANSMIT_MODE == 1U)
 317:C:/Workspaces/BachelorThesis/imu_test/Dave/Generated/SPI_MASTER\spi_master.h ****   const uint8_t dma_ch_tx_number;
 318:C:/Workspaces/BachelorThesis/imu_test/Dave/Generated/SPI_MASTER\spi_master.h **** #endif
 319:C:/Workspaces/BachelorThesis/imu_test/Dave/Generated/SPI_MASTER\spi_master.h **** } SPI_MASTER_t;
 320:C:/Workspaces/BachelorThesis/imu_test/Dave/Generated/SPI_MASTER\spi_master.h **** 
 321:C:/Workspaces/BachelorThesis/imu_test/Dave/Generated/SPI_MASTER\spi_master.h **** /**
 322:C:/Workspaces/BachelorThesis/imu_test/Dave/Generated/SPI_MASTER\spi_master.h ****  * @}
 323:C:/Workspaces/BachelorThesis/imu_test/Dave/Generated/SPI_MASTER\spi_master.h ****  */
 324:C:/Workspaces/BachelorThesis/imu_test/Dave/Generated/SPI_MASTER\spi_master.h **** /**************************************************************************************************
 325:C:/Workspaces/BachelorThesis/imu_test/Dave/Generated/SPI_MASTER\spi_master.h **** * API Prototypes
 326:C:/Workspaces/BachelorThesis/imu_test/Dave/Generated/SPI_MASTER\spi_master.h **** ***************************************************************************************************
 327:C:/Workspaces/BachelorThesis/imu_test/Dave/Generated/SPI_MASTER\spi_master.h **** #ifdef __cplusplus
 328:C:/Workspaces/BachelorThesis/imu_test/Dave/Generated/SPI_MASTER\spi_master.h **** extern "C" {
 329:C:/Workspaces/BachelorThesis/imu_test/Dave/Generated/SPI_MASTER\spi_master.h **** #endif
 330:C:/Workspaces/BachelorThesis/imu_test/Dave/Generated/SPI_MASTER\spi_master.h **** /**
 331:C:/Workspaces/BachelorThesis/imu_test/Dave/Generated/SPI_MASTER\spi_master.h ****  * @ingroup SPI_MASTER_apidoc
 332:C:/Workspaces/BachelorThesis/imu_test/Dave/Generated/SPI_MASTER\spi_master.h ****  * @{
 333:C:/Workspaces/BachelorThesis/imu_test/Dave/Generated/SPI_MASTER\spi_master.h ****  */
 334:C:/Workspaces/BachelorThesis/imu_test/Dave/Generated/SPI_MASTER\spi_master.h **** /**
 335:C:/Workspaces/BachelorThesis/imu_test/Dave/Generated/SPI_MASTER\spi_master.h ****  * @brief Get SPI_MASTER APP version
 336:C:/Workspaces/BachelorThesis/imu_test/Dave/Generated/SPI_MASTER\spi_master.h ****  * @return DAVE_APP_VERSION_t APP version information (major, minor and patch number)
 337:C:/Workspaces/BachelorThesis/imu_test/Dave/Generated/SPI_MASTER\spi_master.h ****  * <BR>
 338:C:/Workspaces/BachelorThesis/imu_test/Dave/Generated/SPI_MASTER\spi_master.h ****  * \par<b>Description:</b><br>
 339:C:/Workspaces/BachelorThesis/imu_test/Dave/Generated/SPI_MASTER\spi_master.h ****  * The function can be used to check application software compatibility with a
 340:C:/Workspaces/BachelorThesis/imu_test/Dave/Generated/SPI_MASTER\spi_master.h ****  * specific version of the APP.
 341:C:/Workspaces/BachelorThesis/imu_test/Dave/Generated/SPI_MASTER\spi_master.h ****  *
 342:C:/Workspaces/BachelorThesis/imu_test/Dave/Generated/SPI_MASTER\spi_master.h ****  * Example Usage:
 343:C:/Workspaces/BachelorThesis/imu_test/Dave/Generated/SPI_MASTER\spi_master.h ****  * @code
 344:C:/Workspaces/BachelorThesis/imu_test/Dave/Generated/SPI_MASTER\spi_master.h ****  * #include "DAVE.h"
 345:C:/Workspaces/BachelorThesis/imu_test/Dave/Generated/SPI_MASTER\spi_master.h ****  * int main(void)
 346:C:/Workspaces/BachelorThesis/imu_test/Dave/Generated/SPI_MASTER\spi_master.h ****  * {
 347:C:/Workspaces/BachelorThesis/imu_test/Dave/Generated/SPI_MASTER\spi_master.h ****  *   DAVE_STATUS_t status;
 348:C:/Workspaces/BachelorThesis/imu_test/Dave/Generated/SPI_MASTER\spi_master.h ****  *   DAVE_APP_VERSION_t app_version;
 349:C:/Workspaces/BachelorThesis/imu_test/Dave/Generated/SPI_MASTER\spi_master.h ****  *
 350:C:/Workspaces/BachelorThesis/imu_test/Dave/Generated/SPI_MASTER\spi_master.h ****  *   status = DAVE_Init();    // SPI_MASTER_Init() is called from DAVE_Init()
 351:C:/Workspaces/BachelorThesis/imu_test/Dave/Generated/SPI_MASTER\spi_master.h ****  *
 352:C:/Workspaces/BachelorThesis/imu_test/Dave/Generated/SPI_MASTER\spi_master.h ****  *   app_version = SPI_MASTER_GetAppVersion();
 353:C:/Workspaces/BachelorThesis/imu_test/Dave/Generated/SPI_MASTER\spi_master.h ****  *
 354:C:/Workspaces/BachelorThesis/imu_test/Dave/Generated/SPI_MASTER\spi_master.h ****  *   if (app_version.major != 4U)
 355:C:/Workspaces/BachelorThesis/imu_test/Dave/Generated/SPI_MASTER\spi_master.h ****  *   {
 356:C:/Workspaces/BachelorThesis/imu_test/Dave/Generated/SPI_MASTER\spi_master.h ****  *     // Probably, not the right version.
 357:C:/Workspaces/BachelorThesis/imu_test/Dave/Generated/SPI_MASTER\spi_master.h ****  *   }
 358:C:/Workspaces/BachelorThesis/imu_test/Dave/Generated/SPI_MASTER\spi_master.h ****  *
 359:C:/Workspaces/BachelorThesis/imu_test/Dave/Generated/SPI_MASTER\spi_master.h ****  *   while(1U)
 360:C:/Workspaces/BachelorThesis/imu_test/Dave/Generated/SPI_MASTER\spi_master.h ****  *   {
 361:C:/Workspaces/BachelorThesis/imu_test/Dave/Generated/SPI_MASTER\spi_master.h ****  *   }
 362:C:/Workspaces/BachelorThesis/imu_test/Dave/Generated/SPI_MASTER\spi_master.h ****  *   return 1;
 363:C:/Workspaces/BachelorThesis/imu_test/Dave/Generated/SPI_MASTER\spi_master.h ****  * }
 364:C:/Workspaces/BachelorThesis/imu_test/Dave/Generated/SPI_MASTER\spi_master.h ****  * @endcode<BR>
 365:C:/Workspaces/BachelorThesis/imu_test/Dave/Generated/SPI_MASTER\spi_master.h ****  */
 366:C:/Workspaces/BachelorThesis/imu_test/Dave/Generated/SPI_MASTER\spi_master.h **** DAVE_APP_VERSION_t SPI_MASTER_GetAppVersion(void);
 367:C:/Workspaces/BachelorThesis/imu_test/Dave/Generated/SPI_MASTER\spi_master.h **** 
 368:C:/Workspaces/BachelorThesis/imu_test/Dave/Generated/SPI_MASTER\spi_master.h **** /**
 369:C:/Workspaces/BachelorThesis/imu_test/Dave/Generated/SPI_MASTER\spi_master.h ****  * @brief Initialize the SPI channel as per the configuration made in GUI.
 370:C:/Workspaces/BachelorThesis/imu_test/Dave/Generated/SPI_MASTER\spi_master.h ****  * @param handle Pointer to static and dynamic content of APP configuration.
 371:C:/Workspaces/BachelorThesis/imu_test/Dave/Generated/SPI_MASTER\spi_master.h ****  * @return SPI_MASTER_STATUS_t: Status of SPI_MASTER driver initialization.\n
 372:C:/Workspaces/BachelorThesis/imu_test/Dave/Generated/SPI_MASTER\spi_master.h ****  *                    SPI_MASTER_STATUS_SUCCESS - on successful initialization.\n
 373:C:/Workspaces/BachelorThesis/imu_test/Dave/Generated/SPI_MASTER\spi_master.h ****  *                    SPI_MASTER_STATUS_FAILURE - if initialization fails.\n
 374:C:/Workspaces/BachelorThesis/imu_test/Dave/Generated/SPI_MASTER\spi_master.h ****  *
 375:C:/Workspaces/BachelorThesis/imu_test/Dave/Generated/SPI_MASTER\spi_master.h ****  * \par<b>Description:</b><br>
 376:C:/Workspaces/BachelorThesis/imu_test/Dave/Generated/SPI_MASTER\spi_master.h ****  * Initializes IO pins used for the SPI_MASTER communication and configures USIC registers based on
 377:C:/Workspaces/BachelorThesis/imu_test/Dave/Generated/SPI_MASTER\spi_master.h ****  * provided in the GUI. Calculates divider values PDIV and STEP for a precise baudrate. It also ena
 378:C:/Workspaces/BachelorThesis/imu_test/Dave/Generated/SPI_MASTER\spi_master.h ****  * interrupt flags and service request values.
 379:C:/Workspaces/BachelorThesis/imu_test/Dave/Generated/SPI_MASTER\spi_master.h ****  * <BR>
 380:C:/Workspaces/BachelorThesis/imu_test/Dave/Generated/SPI_MASTER\spi_master.h ****  *
 381:C:/Workspaces/BachelorThesis/imu_test/Dave/Generated/SPI_MASTER\spi_master.h ****  * Example Usage:
 382:C:/Workspaces/BachelorThesis/imu_test/Dave/Generated/SPI_MASTER\spi_master.h ****  * @code
 383:C:/Workspaces/BachelorThesis/imu_test/Dave/Generated/SPI_MASTER\spi_master.h ****  *  #include "DAVE.h"         //Declarations from DAVE Code Generation (includes SFR declaration)
 384:C:/Workspaces/BachelorThesis/imu_test/Dave/Generated/SPI_MASTER\spi_master.h ****  *
 385:C:/Workspaces/BachelorThesis/imu_test/Dave/Generated/SPI_MASTER\spi_master.h ****  *  int main(void)
 386:C:/Workspaces/BachelorThesis/imu_test/Dave/Generated/SPI_MASTER\spi_master.h ****  *  {
 387:C:/Workspaces/BachelorThesis/imu_test/Dave/Generated/SPI_MASTER\spi_master.h ****  *    DAVE_STATUS_t status;
 388:C:/Workspaces/BachelorThesis/imu_test/Dave/Generated/SPI_MASTER\spi_master.h ****  *
 389:C:/Workspaces/BachelorThesis/imu_test/Dave/Generated/SPI_MASTER\spi_master.h ****  *    status = DAVE_Init();    // SPI_MASTER_Init() is called from DAVE_Init()
 390:C:/Workspaces/BachelorThesis/imu_test/Dave/Generated/SPI_MASTER\spi_master.h ****  *
 391:C:/Workspaces/BachelorThesis/imu_test/Dave/Generated/SPI_MASTER\spi_master.h ****  *    if(status == DAVE_STATUS_SUCCESS)
 392:C:/Workspaces/BachelorThesis/imu_test/Dave/Generated/SPI_MASTER\spi_master.h ****  *    {
 393:C:/Workspaces/BachelorThesis/imu_test/Dave/Generated/SPI_MASTER\spi_master.h ****  *        while(1U)
 394:C:/Workspaces/BachelorThesis/imu_test/Dave/Generated/SPI_MASTER\spi_master.h ****  *        {
 395:C:/Workspaces/BachelorThesis/imu_test/Dave/Generated/SPI_MASTER\spi_master.h ****  *        }
 396:C:/Workspaces/BachelorThesis/imu_test/Dave/Generated/SPI_MASTER\spi_master.h ****  *    }
 397:C:/Workspaces/BachelorThesis/imu_test/Dave/Generated/SPI_MASTER\spi_master.h ****  *    else
 398:C:/Workspaces/BachelorThesis/imu_test/Dave/Generated/SPI_MASTER\spi_master.h ****  *    {
 399:C:/Workspaces/BachelorThesis/imu_test/Dave/Generated/SPI_MASTER\spi_master.h ****  *     XMC_DEBUG("main: Application initialization failed");
 400:C:/Workspaces/BachelorThesis/imu_test/Dave/Generated/SPI_MASTER\spi_master.h ****  *     while(1U)
 401:C:/Workspaces/BachelorThesis/imu_test/Dave/Generated/SPI_MASTER\spi_master.h ****  *     {
 402:C:/Workspaces/BachelorThesis/imu_test/Dave/Generated/SPI_MASTER\spi_master.h ****  *     }
 403:C:/Workspaces/BachelorThesis/imu_test/Dave/Generated/SPI_MASTER\spi_master.h ****  *    }
 404:C:/Workspaces/BachelorThesis/imu_test/Dave/Generated/SPI_MASTER\spi_master.h ****  *     return 1U;
 405:C:/Workspaces/BachelorThesis/imu_test/Dave/Generated/SPI_MASTER\spi_master.h ****  * }
 406:C:/Workspaces/BachelorThesis/imu_test/Dave/Generated/SPI_MASTER\spi_master.h ****  *  @endcode
 407:C:/Workspaces/BachelorThesis/imu_test/Dave/Generated/SPI_MASTER\spi_master.h ****  */
 408:C:/Workspaces/BachelorThesis/imu_test/Dave/Generated/SPI_MASTER\spi_master.h **** SPI_MASTER_STATUS_t SPI_MASTER_Init(SPI_MASTER_t* const handle);
 409:C:/Workspaces/BachelorThesis/imu_test/Dave/Generated/SPI_MASTER\spi_master.h **** 
 410:C:/Workspaces/BachelorThesis/imu_test/Dave/Generated/SPI_MASTER\spi_master.h **** /**
 411:C:/Workspaces/BachelorThesis/imu_test/Dave/Generated/SPI_MASTER\spi_master.h ****  * @brief Set the communication mode along with required port configuration.
 412:C:/Workspaces/BachelorThesis/imu_test/Dave/Generated/SPI_MASTER\spi_master.h ****  *
 413:C:/Workspaces/BachelorThesis/imu_test/Dave/Generated/SPI_MASTER\spi_master.h ****  * @param handle handle Pointer to static and dynamic content of APP configuration.
 414:C:/Workspaces/BachelorThesis/imu_test/Dave/Generated/SPI_MASTER\spi_master.h ****  * @param mode SPI working mode
 415:C:/Workspaces/BachelorThesis/imu_test/Dave/Generated/SPI_MASTER\spi_master.h ****  *
 416:C:/Workspaces/BachelorThesis/imu_test/Dave/Generated/SPI_MASTER\spi_master.h ****  * @return  SPI_MASTER_STATUS_t
 417:C:/Workspaces/BachelorThesis/imu_test/Dave/Generated/SPI_MASTER\spi_master.h ****  *          SPI_MASTER_STATUS_SUCCESS  : if updation of settings are successful\n
 418:C:/Workspaces/BachelorThesis/imu_test/Dave/Generated/SPI_MASTER\spi_master.h ****  *          SPI_MASTER_STATUS_FAILURE  : if mode is not supported by the selected pins\n
 419:C:/Workspaces/BachelorThesis/imu_test/Dave/Generated/SPI_MASTER\spi_master.h ****  *          SPI_MASTER_STATUS_BUSY     : if SPI channel is busy with transmit or receive operation\
 420:C:/Workspaces/BachelorThesis/imu_test/Dave/Generated/SPI_MASTER\spi_master.h ****  * <BR>
 421:C:/Workspaces/BachelorThesis/imu_test/Dave/Generated/SPI_MASTER\spi_master.h ****  *
 422:C:/Workspaces/BachelorThesis/imu_test/Dave/Generated/SPI_MASTER\spi_master.h ****  * \par<b>Description:</b><br>
 423:C:/Workspaces/BachelorThesis/imu_test/Dave/Generated/SPI_MASTER\spi_master.h ****  * To change the mode of communication, it is advised to generate the code in Quad/Dual mode initia
 424:C:/Workspaces/BachelorThesis/imu_test/Dave/Generated/SPI_MASTER\spi_master.h ****  * the mode will be taken care by the APP.
 425:C:/Workspaces/BachelorThesis/imu_test/Dave/Generated/SPI_MASTER\spi_master.h ****  * <ul>
 426:C:/Workspaces/BachelorThesis/imu_test/Dave/Generated/SPI_MASTER\spi_master.h ****  * <li>If code is generated for Quad mode, it is possible to change to other modes like Dual, Half 
 427:C:/Workspaces/BachelorThesis/imu_test/Dave/Generated/SPI_MASTER\spi_master.h ****  * <li>If code is generated for Dual mode, it is possible to change to other modes like Half Duplex
 428:C:/Workspaces/BachelorThesis/imu_test/Dave/Generated/SPI_MASTER\spi_master.h ****  * <li>If code is generated for full-duplex mode, it is possible to change to Half Duplex only </li
 429:C:/Workspaces/BachelorThesis/imu_test/Dave/Generated/SPI_MASTER\spi_master.h ****  * </ul>
 430:C:/Workspaces/BachelorThesis/imu_test/Dave/Generated/SPI_MASTER\spi_master.h ****  * 
 431:C:/Workspaces/BachelorThesis/imu_test/Dave/Generated/SPI_MASTER\spi_master.h ****  * <BR>
 432:C:/Workspaces/BachelorThesis/imu_test/Dave/Generated/SPI_MASTER\spi_master.h ****  *
 433:C:/Workspaces/BachelorThesis/imu_test/Dave/Generated/SPI_MASTER\spi_master.h ****  * Example Usage:
 434:C:/Workspaces/BachelorThesis/imu_test/Dave/Generated/SPI_MASTER\spi_master.h ****  * <BR>
 435:C:/Workspaces/BachelorThesis/imu_test/Dave/Generated/SPI_MASTER\spi_master.h ****  * @code
 436:C:/Workspaces/BachelorThesis/imu_test/Dave/Generated/SPI_MASTER\spi_master.h ****  * #include "DAVE.h"
 437:C:/Workspaces/BachelorThesis/imu_test/Dave/Generated/SPI_MASTER\spi_master.h ****  *
 438:C:/Workspaces/BachelorThesis/imu_test/Dave/Generated/SPI_MASTER\spi_master.h ****  *  //Precondition:
 439:C:/Workspaces/BachelorThesis/imu_test/Dave/Generated/SPI_MASTER\spi_master.h ****  *  //Configure the SPI_MASTER APP operation mode as 'Quad SPI'.
 440:C:/Workspaces/BachelorThesis/imu_test/Dave/Generated/SPI_MASTER\spi_master.h ****  *  //Description:
 441:C:/Workspaces/BachelorThesis/imu_test/Dave/Generated/SPI_MASTER\spi_master.h ****  *  //The following code changes the SPI master device mode to Full duplex mode and starts sending 
 442:C:/Workspaces/BachelorThesis/imu_test/Dave/Generated/SPI_MASTER\spi_master.h ****  *  //the buffer.
 443:C:/Workspaces/BachelorThesis/imu_test/Dave/Generated/SPI_MASTER\spi_master.h ****  *
 444:C:/Workspaces/BachelorThesis/imu_test/Dave/Generated/SPI_MASTER\spi_master.h ****  *
 445:C:/Workspaces/BachelorThesis/imu_test/Dave/Generated/SPI_MASTER\spi_master.h ****  * int main(void)
 446:C:/Workspaces/BachelorThesis/imu_test/Dave/Generated/SPI_MASTER\spi_master.h ****  * {
 447:C:/Workspaces/BachelorThesis/imu_test/Dave/Generated/SPI_MASTER\spi_master.h ****  *   DAVE_STATUS_t status;
 448:C:/Workspaces/BachelorThesis/imu_test/Dave/Generated/SPI_MASTER\spi_master.h ****  *   SPI_MASTER_STATUS_t spi_status;
 449:C:/Workspaces/BachelorThesis/imu_test/Dave/Generated/SPI_MASTER\spi_master.h ****  *   uint8_t Send_Data[] = "Infineon DAVE application.";
 450:C:/Workspaces/BachelorThesis/imu_test/Dave/Generated/SPI_MASTER\spi_master.h ****  *
 451:C:/Workspaces/BachelorThesis/imu_test/Dave/Generated/SPI_MASTER\spi_master.h ****  *   status = DAVE_Init();    // SPI_MASTER_Init() is called from DAVE_Init()
 452:C:/Workspaces/BachelorThesis/imu_test/Dave/Generated/SPI_MASTER\spi_master.h ****  *   if(status == DAVE_STATUS_SUCCESS)
 453:C:/Workspaces/BachelorThesis/imu_test/Dave/Generated/SPI_MASTER\spi_master.h ****  *   {
 454:C:/Workspaces/BachelorThesis/imu_test/Dave/Generated/SPI_MASTER\spi_master.h ****  *    spi_status = SPI_MASTER_SetMode(&SPI_MASTER_0, XMC_SPI_CH_MODE_STANDARD);
 455:C:/Workspaces/BachelorThesis/imu_test/Dave/Generated/SPI_MASTER\spi_master.h ****  *    if(spi_status == SPI_MASTER_STATUS_SUCCESS)
 456:C:/Workspaces/BachelorThesis/imu_test/Dave/Generated/SPI_MASTER\spi_master.h ****  *    {
 457:C:/Workspaces/BachelorThesis/imu_test/Dave/Generated/SPI_MASTER\spi_master.h ****  *       SPI_MASTER_Transmit(&SPI_MASTER_0, Send_Data, sizeof(Send_Data));
 458:C:/Workspaces/BachelorThesis/imu_test/Dave/Generated/SPI_MASTER\spi_master.h ****  *    }
 459:C:/Workspaces/BachelorThesis/imu_test/Dave/Generated/SPI_MASTER\spi_master.h ****  *   }
 460:C:/Workspaces/BachelorThesis/imu_test/Dave/Generated/SPI_MASTER\spi_master.h ****  *   else
 461:C:/Workspaces/BachelorThesis/imu_test/Dave/Generated/SPI_MASTER\spi_master.h ****  *   {
 462:C:/Workspaces/BachelorThesis/imu_test/Dave/Generated/SPI_MASTER\spi_master.h ****  *    XMC_DEBUG("main: Application initialization failed");
 463:C:/Workspaces/BachelorThesis/imu_test/Dave/Generated/SPI_MASTER\spi_master.h ****  *    while(1U)
 464:C:/Workspaces/BachelorThesis/imu_test/Dave/Generated/SPI_MASTER\spi_master.h ****  *    {
 465:C:/Workspaces/BachelorThesis/imu_test/Dave/Generated/SPI_MASTER\spi_master.h ****  *    }
 466:C:/Workspaces/BachelorThesis/imu_test/Dave/Generated/SPI_MASTER\spi_master.h ****  *   }
 467:C:/Workspaces/BachelorThesis/imu_test/Dave/Generated/SPI_MASTER\spi_master.h ****  *    return 1U;
 468:C:/Workspaces/BachelorThesis/imu_test/Dave/Generated/SPI_MASTER\spi_master.h ****  * }
 469:C:/Workspaces/BachelorThesis/imu_test/Dave/Generated/SPI_MASTER\spi_master.h ****  * @endcode<BR>
 470:C:/Workspaces/BachelorThesis/imu_test/Dave/Generated/SPI_MASTER\spi_master.h ****  */
 471:C:/Workspaces/BachelorThesis/imu_test/Dave/Generated/SPI_MASTER\spi_master.h **** 
 472:C:/Workspaces/BachelorThesis/imu_test/Dave/Generated/SPI_MASTER\spi_master.h **** SPI_MASTER_STATUS_t SPI_MASTER_SetMode(SPI_MASTER_t* const handle, const XMC_SPI_CH_MODE_t mode);
 473:C:/Workspaces/BachelorThesis/imu_test/Dave/Generated/SPI_MASTER\spi_master.h **** 
 474:C:/Workspaces/BachelorThesis/imu_test/Dave/Generated/SPI_MASTER\spi_master.h **** /**
 475:C:/Workspaces/BachelorThesis/imu_test/Dave/Generated/SPI_MASTER\spi_master.h ****  * @brief Set the required baud rate during runtime.
 476:C:/Workspaces/BachelorThesis/imu_test/Dave/Generated/SPI_MASTER\spi_master.h ****  *
 477:C:/Workspaces/BachelorThesis/imu_test/Dave/Generated/SPI_MASTER\spi_master.h ****  * @param handle handle Pointer to static and dynamic content of APP configuration.
 478:C:/Workspaces/BachelorThesis/imu_test/Dave/Generated/SPI_MASTER\spi_master.h ****  * @param baud_rate required baud rate
 479:C:/Workspaces/BachelorThesis/imu_test/Dave/Generated/SPI_MASTER\spi_master.h ****  *
 480:C:/Workspaces/BachelorThesis/imu_test/Dave/Generated/SPI_MASTER\spi_master.h ****  * @return  SPI_MASTER_STATUS_t
 481:C:/Workspaces/BachelorThesis/imu_test/Dave/Generated/SPI_MASTER\spi_master.h ****  *          SPI_MASTER_STATUS_SUCCESS  : if updation of baud rate is successful\n
 482:C:/Workspaces/BachelorThesis/imu_test/Dave/Generated/SPI_MASTER\spi_master.h ****  *          SPI_MASTER_STATUS_FAILURE  : if updation is failed\n
 483:C:/Workspaces/BachelorThesis/imu_test/Dave/Generated/SPI_MASTER\spi_master.h ****  *          SPI_MASTER_STATUS_BUSY     : if SPI channel is busy with other operation\n
 484:C:/Workspaces/BachelorThesis/imu_test/Dave/Generated/SPI_MASTER\spi_master.h ****  * <BR>
 485:C:/Workspaces/BachelorThesis/imu_test/Dave/Generated/SPI_MASTER\spi_master.h ****  *
 486:C:/Workspaces/BachelorThesis/imu_test/Dave/Generated/SPI_MASTER\spi_master.h ****  * \par<b>Description:</b><br>
 487:C:/Workspaces/BachelorThesis/imu_test/Dave/Generated/SPI_MASTER\spi_master.h ****  * While setting the baud rate to avoid noise of the port pins, all the pins are changed to input. 
 488:C:/Workspaces/BachelorThesis/imu_test/Dave/Generated/SPI_MASTER\spi_master.h ****  * required baud again ports are initialised with the configured settings.
 489:C:/Workspaces/BachelorThesis/imu_test/Dave/Generated/SPI_MASTER\spi_master.h ****  * <BR>
 490:C:/Workspaces/BachelorThesis/imu_test/Dave/Generated/SPI_MASTER\spi_master.h ****  *
 491:C:/Workspaces/BachelorThesis/imu_test/Dave/Generated/SPI_MASTER\spi_master.h ****  * Example Usage:
 492:C:/Workspaces/BachelorThesis/imu_test/Dave/Generated/SPI_MASTER\spi_master.h ****  * <BR>
 493:C:/Workspaces/BachelorThesis/imu_test/Dave/Generated/SPI_MASTER\spi_master.h ****  * @code
 494:C:/Workspaces/BachelorThesis/imu_test/Dave/Generated/SPI_MASTER\spi_master.h ****  * #include "DAVE.h"
 495:C:/Workspaces/BachelorThesis/imu_test/Dave/Generated/SPI_MASTER\spi_master.h ****  *
 496:C:/Workspaces/BachelorThesis/imu_test/Dave/Generated/SPI_MASTER\spi_master.h ****  *  //Description:
 497:C:/Workspaces/BachelorThesis/imu_test/Dave/Generated/SPI_MASTER\spi_master.h ****  *  //The following code changes the SPI master baud rate to 9600 and starts sending the data store
 498:C:/Workspaces/BachelorThesis/imu_test/Dave/Generated/SPI_MASTER\spi_master.h ****  *  //the buffer.
 499:C:/Workspaces/BachelorThesis/imu_test/Dave/Generated/SPI_MASTER\spi_master.h ****  *
 500:C:/Workspaces/BachelorThesis/imu_test/Dave/Generated/SPI_MASTER\spi_master.h ****  * int main(void)
 501:C:/Workspaces/BachelorThesis/imu_test/Dave/Generated/SPI_MASTER\spi_master.h ****  * {
 502:C:/Workspaces/BachelorThesis/imu_test/Dave/Generated/SPI_MASTER\spi_master.h ****  *   DAVE_STATUS_t status;
 503:C:/Workspaces/BachelorThesis/imu_test/Dave/Generated/SPI_MASTER\spi_master.h ****  *   SPI_MASTER_STATUS_t spi_status;
 504:C:/Workspaces/BachelorThesis/imu_test/Dave/Generated/SPI_MASTER\spi_master.h ****  *   uint8_t Send_Data[] = "Infineon DAVE application.";
 505:C:/Workspaces/BachelorThesis/imu_test/Dave/Generated/SPI_MASTER\spi_master.h ****  *   uint32_t baud_rate;
 506:C:/Workspaces/BachelorThesis/imu_test/Dave/Generated/SPI_MASTER\spi_master.h ****  *
 507:C:/Workspaces/BachelorThesis/imu_test/Dave/Generated/SPI_MASTER\spi_master.h ****  *   status = DAVE_Init();    // SPI_MASTER_Init() is called from DAVE_Init()
 508:C:/Workspaces/BachelorThesis/imu_test/Dave/Generated/SPI_MASTER\spi_master.h ****  *   if(status == DAVE_STATUS_SUCCESS)
 509:C:/Workspaces/BachelorThesis/imu_test/Dave/Generated/SPI_MASTER\spi_master.h ****  *   {
 510:C:/Workspaces/BachelorThesis/imu_test/Dave/Generated/SPI_MASTER\spi_master.h ****  *     baud_rate = 9600U;
 511:C:/Workspaces/BachelorThesis/imu_test/Dave/Generated/SPI_MASTER\spi_master.h ****  *
 512:C:/Workspaces/BachelorThesis/imu_test/Dave/Generated/SPI_MASTER\spi_master.h ****  *     spi_status = SPI_MASTER_SetBaudRate(&SPI_MASTER_0, baud_rate);
 513:C:/Workspaces/BachelorThesis/imu_test/Dave/Generated/SPI_MASTER\spi_master.h ****  *
 514:C:/Workspaces/BachelorThesis/imu_test/Dave/Generated/SPI_MASTER\spi_master.h ****  *     if(spi_status == SPI_MASTER_STATUS_SUCCESS)
 515:C:/Workspaces/BachelorThesis/imu_test/Dave/Generated/SPI_MASTER\spi_master.h ****  *     {
 516:C:/Workspaces/BachelorThesis/imu_test/Dave/Generated/SPI_MASTER\spi_master.h ****  *       SPI_MASTER_Transmit(&SPI_MASTER_0, Send_Data, sizeof(Send_Data));
 517:C:/Workspaces/BachelorThesis/imu_test/Dave/Generated/SPI_MASTER\spi_master.h ****  *     }
 518:C:/Workspaces/BachelorThesis/imu_test/Dave/Generated/SPI_MASTER\spi_master.h ****  *   }
 519:C:/Workspaces/BachelorThesis/imu_test/Dave/Generated/SPI_MASTER\spi_master.h ****  *   else
 520:C:/Workspaces/BachelorThesis/imu_test/Dave/Generated/SPI_MASTER\spi_master.h ****  *   {
 521:C:/Workspaces/BachelorThesis/imu_test/Dave/Generated/SPI_MASTER\spi_master.h ****  *    XMC_DEBUG("main: Application initialization failed");
 522:C:/Workspaces/BachelorThesis/imu_test/Dave/Generated/SPI_MASTER\spi_master.h ****  *    while(1U)
 523:C:/Workspaces/BachelorThesis/imu_test/Dave/Generated/SPI_MASTER\spi_master.h ****  *    {
 524:C:/Workspaces/BachelorThesis/imu_test/Dave/Generated/SPI_MASTER\spi_master.h ****  *    }
 525:C:/Workspaces/BachelorThesis/imu_test/Dave/Generated/SPI_MASTER\spi_master.h ****  *   }
 526:C:/Workspaces/BachelorThesis/imu_test/Dave/Generated/SPI_MASTER\spi_master.h ****  *    return 1U;
 527:C:/Workspaces/BachelorThesis/imu_test/Dave/Generated/SPI_MASTER\spi_master.h ****  * }
 528:C:/Workspaces/BachelorThesis/imu_test/Dave/Generated/SPI_MASTER\spi_master.h ****  * @endcode<BR>
 529:C:/Workspaces/BachelorThesis/imu_test/Dave/Generated/SPI_MASTER\spi_master.h ****  */
 530:C:/Workspaces/BachelorThesis/imu_test/Dave/Generated/SPI_MASTER\spi_master.h **** SPI_MASTER_STATUS_t SPI_MASTER_SetBaudRate(SPI_MASTER_t* const handle, const uint32_t baud_rate);
 531:C:/Workspaces/BachelorThesis/imu_test/Dave/Generated/SPI_MASTER\spi_master.h **** 
 532:C:/Workspaces/BachelorThesis/imu_test/Dave/Generated/SPI_MASTER\spi_master.h **** /**
 533:C:/Workspaces/BachelorThesis/imu_test/Dave/Generated/SPI_MASTER\spi_master.h ****  * @brief Transmits the specified number of data words and execute the callback defined in GUI, if 
 534:C:/Workspaces/BachelorThesis/imu_test/Dave/Generated/SPI_MASTER\spi_master.h ****  *
 535:C:/Workspaces/BachelorThesis/imu_test/Dave/Generated/SPI_MASTER\spi_master.h ****  * @param handle Pointer to static and dynamic content of APP configuration.
 536:C:/Workspaces/BachelorThesis/imu_test/Dave/Generated/SPI_MASTER\spi_master.h ****  * @param dataptr Pointer to data
 537:C:/Workspaces/BachelorThesis/imu_test/Dave/Generated/SPI_MASTER\spi_master.h ****  * @param count number of data words (word length configured) to be transmitted
 538:C:/Workspaces/BachelorThesis/imu_test/Dave/Generated/SPI_MASTER\spi_master.h ****  *
 539:C:/Workspaces/BachelorThesis/imu_test/Dave/Generated/SPI_MASTER\spi_master.h ****  * @return  SPI_MASTER_STATUS_t
 540:C:/Workspaces/BachelorThesis/imu_test/Dave/Generated/SPI_MASTER\spi_master.h ****  *          SPI_MASTER_STATUS_SUCCESS : if transmit is successful\n
 541:C:/Workspaces/BachelorThesis/imu_test/Dave/Generated/SPI_MASTER\spi_master.h ****  *          SPI_MASTER_STATUS_BUSY : if SPI channel is busy with other operation
 542:C:/Workspaces/BachelorThesis/imu_test/Dave/Generated/SPI_MASTER\spi_master.h ****  * <BR>
 543:C:/Workspaces/BachelorThesis/imu_test/Dave/Generated/SPI_MASTER\spi_master.h ****  *
 544:C:/Workspaces/BachelorThesis/imu_test/Dave/Generated/SPI_MASTER\spi_master.h ****  * \par<b>Description:</b><br>
 545:C:/Workspaces/BachelorThesis/imu_test/Dave/Generated/SPI_MASTER\spi_master.h **** * Transmits data using the SPI channel as a master device. Transmission is accomplished using the t
 546:C:/Workspaces/BachelorThesis/imu_test/Dave/Generated/SPI_MASTER\spi_master.h ****  * as configured in the UI.<br>
 547:C:/Workspaces/BachelorThesis/imu_test/Dave/Generated/SPI_MASTER\spi_master.h ****  * <b>Interrupt:</b><br>
 548:C:/Workspaces/BachelorThesis/imu_test/Dave/Generated/SPI_MASTER\spi_master.h ****  * The data transmission is accomplished using transmit interrupt. User can configure
 549:C:/Workspaces/BachelorThesis/imu_test/Dave/Generated/SPI_MASTER\spi_master.h ****  * a callback function in the APP UI. When the data is fully transmitted, the callback
 550:C:/Workspaces/BachelorThesis/imu_test/Dave/Generated/SPI_MASTER\spi_master.h ****  * function will be executed. If transmit FIFO is enabled, the trigger limit is set to 1.
 551:C:/Workspaces/BachelorThesis/imu_test/Dave/Generated/SPI_MASTER\spi_master.h ****  * So the transmit interrupt will be generated when all the data in FIFO is moved out of FIFO.
 552:C:/Workspaces/BachelorThesis/imu_test/Dave/Generated/SPI_MASTER\spi_master.h ****  * The APP handle's runtime structure is used to store the data pointer, count, data index
 553:C:/Workspaces/BachelorThesis/imu_test/Dave/Generated/SPI_MASTER\spi_master.h ****  * and status of transmission. This function only registers a data transmission request if
 554:C:/Workspaces/BachelorThesis/imu_test/Dave/Generated/SPI_MASTER\spi_master.h ****  * there is no active transmission in progress. Actual data transmission happens in the transmit
 555:C:/Workspaces/BachelorThesis/imu_test/Dave/Generated/SPI_MASTER\spi_master.h ****  * interrupt service routine. A trigger is generated for the transmit interrupt to start loading
